

Microchip MPLAB XC8 Assembler V2.05 build -831301201 
                                                                                               Tue Jun 11 21:18:56 2019

Microchip MPLAB XC8 C Compiler v2.05 (Free license) build 20181220022703 Og1 
     1                           	processor	18F46J50
     2                           	fnconf	rparam,??,?,0
     3                           	opt	pw 120
     4                           	opt	flic
     5                           	psect	idataBANK0,global,class=CODE,delta=1,noexec
     6                           	psect	smallconst,global,reloc=2,class=SMALLCONST,delta=1,noexec
     7                           	psect	cinit,global,reloc=2,class=CODE,delta=1
     8                           	psect	bssCOMRAM,global,class=COMRAM,space=1,delta=1,noexec
     9                           	psect	bssBANK0,global,class=BANK0,space=1,delta=1,lowdata,noexec
    10                           	psect	dataBANK0,global,class=BANK0,space=1,delta=1,lowdata,noexec
    11                           	psect	bssBANK1,global,class=BANK1,space=1,delta=1,lowdata,noexec
    12                           	psect	cstackBANK1,global,class=BANK1,space=1,delta=1,noexec
    13                           	psect	cstackBANK0,global,class=BANK0,space=1,delta=1,noexec
    14                           	psect	cstackCOMRAM,global,class=COMRAM,space=1,delta=1,noexec
    15                           	psect	text0,global,reloc=2,class=CODE,delta=1
    16                           	psect	text1,global,reloc=2,class=CODE,delta=1
    17                           	psect	text2,global,reloc=2,class=CODE,delta=1,group=2
    18                           	psect	text3,global,reloc=2,class=CODE,delta=1
    19                           	psect	text4,global,reloc=2,class=CODE,delta=1
    20                           	psect	text5,global,reloc=2,class=CODE,delta=1
    21                           	psect	text6,global,reloc=2,class=CODE,delta=1
    22                           	psect	text7,global,reloc=2,class=CODE,delta=1
    23                           	psect	text8,global,reloc=2,class=CODE,delta=1
    24                           	psect	text9,global,reloc=2,class=CODE,delta=1
    25                           	psect	text10,global,reloc=2,class=CODE,delta=1
    26                           	psect	text11,global,reloc=2,class=CODE,delta=1
    27                           	psect	text12,global,reloc=2,class=CODE,delta=1
    28                           	psect	text13,global,reloc=2,class=CODE,delta=1
    29                           	psect	intcode,global,reloc=2,class=CODE,delta=1
    30                           	psect	text15,global,reloc=2,class=CODE,delta=1
    31                           	psect	text16,global,reloc=2,class=CODE,delta=1
    32                           	psect	text17,global,reloc=2,class=CODE,delta=1
    33                           	psect	text18,global,reloc=2,class=CODE,delta=1
    34                           	psect	text19,global,reloc=2,class=CODE,delta=1
    35                           	psect	text20,global,reloc=2,class=CODE,delta=1
    36                           	psect	text21,global,reloc=2,class=CODE,delta=1
    37                           	psect	text22,global,reloc=2,class=CODE,delta=1,group=2
    38                           	psect	text23,global,reloc=2,class=CODE,delta=1
    39                           	psect	text24,global,reloc=2,class=CODE,delta=1
    40                           	psect	text25,global,reloc=2,class=CODE,delta=1
    41                           	psect	text26,global,reloc=2,class=CODE,delta=1
    42                           	psect	text27,global,reloc=2,class=CODE,delta=1
    43                           	psect	text28,global,reloc=2,class=CODE,delta=1
    44                           	psect	text29,global,reloc=2,class=CODE,delta=1
    45                           	psect	text30,global,reloc=2,class=CODE,delta=1
    46                           	psect	text31,global,reloc=2,class=CODE,delta=1
    47                           	psect	text32,global,reloc=2,class=CODE,delta=1
    48                           	psect	text33,global,reloc=2,class=CODE,delta=1
    49                           	psect	text34,global,reloc=2,class=CODE,delta=1
    50                           	psect	text35,global,reloc=2,class=CODE,delta=1
    51                           	psect	text36,global,reloc=2,class=CODE,delta=1
    52                           	psect	text37,global,reloc=2,class=CODE,delta=1
    53                           	psect	text38,global,reloc=2,class=CODE,delta=1
    54                           	psect	text39,global,reloc=2,class=CODE,delta=1
    55                           	psect	text40,global,reloc=2,class=CODE,delta=1
    56                           	psect	text41,global,reloc=2,class=CODE,delta=1
    57                           	psect	text42,global,reloc=2,class=CODE,delta=1
    58                           	psect	text43,global,reloc=2,class=CODE,delta=1
    59                           	psect	text44,global,reloc=2,class=CODE,delta=1
    60                           	psect	text45,global,reloc=2,class=CODE,delta=1
    61                           	psect	text46,global,reloc=2,class=CODE,delta=1
    62                           	psect	text47,global,reloc=2,class=CODE,delta=1
    63                           	psect	text48,global,reloc=2,class=CODE,delta=1
    64                           	psect	text49,global,reloc=2,class=CODE,delta=1
    65                           	psect	intsave_regs,global,class=BIGRAM,space=1,delta=1,noexec
    66                           	psect	rparam,global,class=COMRAM,space=1,delta=1,noexec
    67                           	psect	temp,global,ovrld,common,class=COMRAM,space=1,delta=1
    68                           	dabs	1,0x400,48,_BDT
    69                           	dabs	1,0x438,8,_CtrlTrfData
    70                           	dabs	1,0x430,8,_SetupPkt
    71  0000                     
    72                           ; Version 2.05
    73                           ; Generated 20/12/2018 GMT
    74                           ; 
    75                           ; Copyright © 2018, Microchip Technology Inc. and its subsidiaries ("Microchip")
    76                           ; All rights reserved.
    77                           ; 
    78                           ; This software is developed by Microchip Technology Inc. and its subsidiaries ("Microch
      +                          ip").
    79                           ; 
    80                           ; Redistribution and use in source and binary forms, with or without modification, are
    81                           ; permitted provided that the following conditions are met:
    82                           ; 
    83                           ;     1. Redistributions of source code must retain the above copyright notice, this lis
      +                          t of
    84                           ;        conditions and the following disclaimer.
    85                           ; 
    86                           ;     2. Redistributions in binary form must reproduce the above copyright notice, this 
      +                          list
    87                           ;        of conditions and the following disclaimer in the documentation and/or other
    88                           ;        materials provided with the distribution.
    89                           ; 
    90                           ;     3. Microchip's name may not be used to endorse or promote products derived from th
      +                          is
    91                           ;        software without specific prior written permission.
    92                           ; 
    93                           ; THIS SOFTWARE IS PROVIDED BY MICROCHIP "AS IS" AND ANY EXPRESS OR IMPLIED WARRANTIES,
    94                           ; INCLUDING, BUT NOT LIMITED TO, THE IMPLIED WARRANTIES OF MERCHANTABILITY AND FITNESS F
      +                          OR
    95                           ; PURPOSE ARE DISCLAIMED.  IN NO EVENT SHALL MICROCHIP BE LIABLE FOR ANY DIRECT, INDIREC
      +                          T,
    96                           ; INCIDENTAL, SPECIAL, EXEMPLARY, OR CONSEQUENTIAL DAMAGES (INCLUDING BUT NOT LIMITED TO
    97                           ; PROCUREMENT OF SUBSTITUTE GOODS OR SERVICES; LOSS OF USE, DATA OR PROFITS; OR BUSINESS
    98                           ; INTERRUPTION) HOWSOEVER CAUSED AND ON ANY THEORY OF LIABILITY, WHETHER IN CONTRACT, ST
      +                          RICT
    99                           ; LIABILITY, OR TORT (INCLUDING NEGLIGENCE OR OTHERWISE) ARISING IN ANY WAY OUT OF THE U
      +                          SE OF
   100                           ; THIS SOFTWARE, EVEN IF ADVISED OF THE POSSIBILITY OF SUCH DAMAGE.
   101                           ; 
   102                           ; 
   103                           ; Code-generator required, PIC18F46J50 Definitions
   104                           ; 
   105                           ; SFR Addresses
   106  0000                     
   107                           	psect	idataBANK0
   108  002EA8                     __pidataBANK0:
   109                           	opt callstack 0
   110                           
   111                           ;initializer for _buttonMessage
   112  002EA8  42                 	db	66
   113  002EA9  75                 	db	117
   114  002EAA  74                 	db	116
   115  002EAB  74                 	db	116
   116  002EAC  6F                 	db	111
   117  002EAD  6E                 	db	110
   118  002EAE  20                 	db	32
   119  002EAF  70                 	db	112
   120  002EB0  72                 	db	114
   121  002EB1  65                 	db	101
   122  002EB2  73                 	db	115
   123  002EB3  73                 	db	115
   124  002EB4  65                 	db	101
   125  002EB5  64                 	db	100
   126  002EB6  2E                 	db	46
   127  002EB7  0D                 	db	13
   128  002EB8  0A                 	db	10
   129  002EB9  00                 	db	0
   130                           
   131                           	psect	smallconst
   132  000F00                     __psmallconst:
   133                           	opt callstack 0
   134  000F00  00                 	db	0
   135  000F01                     _USB_SD_Ptr:
   136                           	opt callstack 0
   137  000F01  C6                 	db	low _sd000
   138  000F02  0F                 	db	high _sd000
   139  000F03  80                 	db	low _sd001
   140  000F04  0F                 	db	high _sd001
   141  000F05  4C                 	db	low _sd002
   142  000F06  0F                 	db	high _sd002
   143  000F07                     __end_of_USB_SD_Ptr:
   144                           	opt callstack 0
   145  000F07                     _USB_CD_Ptr:
   146                           	opt callstack 0
   147  000F07  09                 	db	low _configDescriptor1
   148  000F08  0F                 	db	high _configDescriptor1
   149  000F09                     __end_of_USB_CD_Ptr:
   150                           	opt callstack 0
   151  000F09                     _configDescriptor1:
   152                           	opt callstack 0
   153  000F09  09                 	db	9
   154  000F0A  02                 	db	2
   155  000F0B  43                 	db	67
   156  000F0C  00                 	db	0
   157  000F0D  02                 	db	2
   158  000F0E  01                 	db	1
   159  000F0F  00                 	db	0
   160  000F10  C0                 	db	192
   161  000F11  32                 	db	50
   162  000F12  09                 	db	9
   163  000F13  04                 	db	4
   164  000F14  00                 	db	0
   165  000F15  00                 	db	0
   166  000F16  01                 	db	1
   167  000F17  02                 	db	2
   168  000F18  02                 	db	2
   169  000F19  01                 	db	1
   170  000F1A  00                 	db	0
   171  000F1B  05                 	db	5
   172  000F1C  24                 	db	36
   173  000F1D  00                 	db	0
   174  000F1E  10                 	db	16
   175  000F1F  01                 	db	1
   176  000F20  04                 	db	4
   177  000F21  24                 	db	36
   178  000F22  02                 	db	2
   179  000F23  02                 	db	2
   180  000F24  05                 	db	5
   181  000F25  24                 	db	36
   182  000F26  06                 	db	6
   183  000F27  00                 	db	0
   184  000F28  01                 	db	1
   185  000F29  05                 	db	5
   186  000F2A  24                 	db	36
   187  000F2B  01                 	db	1
   188  000F2C  00                 	db	0
   189  000F2D  01                 	db	1
   190  000F2E  07                 	db	7
   191  000F2F  05                 	db	5
   192  000F30  81                 	db	129
   193  000F31  03                 	db	3
   194  000F32  0A                 	db	10
   195  000F33  00                 	db	0
   196  000F34  02                 	db	2
   197  000F35  09                 	db	9
   198  000F36  04                 	db	4
   199  000F37  01                 	db	1
   200  000F38  00                 	db	0
   201  000F39  02                 	db	2
   202  000F3A  0A                 	db	10
   203  000F3B  00                 	db	0
   204  000F3C  00                 	db	0
   205  000F3D  00                 	db	0
   206  000F3E  07                 	db	7
   207  000F3F  05                 	db	5
   208  000F40  02                 	db	2
   209  000F41  02                 	db	2
   210  000F42  40                 	db	64
   211  000F43  00                 	db	0
   212  000F44  00                 	db	0
   213  000F45  07                 	db	7
   214  000F46  05                 	db	5
   215  000F47  82                 	db	130
   216  000F48  02                 	db	2
   217  000F49  40                 	db	64
   218  000F4A  00                 	db	0
   219  000F4B  00                 	db	0
   220  000F4C                     __end_of_configDescriptor1:
   221                           	opt callstack 0
   222  000F4C                     _sd002:
   223                           	opt callstack 0
   224  000F4C  34                 	db	52
   225  000F4D  03                 	db	3
   226  000F4E  0043               	dw	67
   227  000F50  0044               	dw	68
   228  000F52  0043               	dw	67
   229  000F54  0020               	dw	32
   230  000F56  0052               	dw	82
   231  000F58  0053               	dw	83
   232  000F5A  002D               	dw	45
   233  000F5C  0032               	dw	50
   234  000F5E  0033               	dw	51
   235  000F60  0032               	dw	50
   236  000F62  0020               	dw	32
   237  000F64  0045               	dw	69
   238  000F66  006D               	dw	109
   239  000F68  0075               	dw	117
   240  000F6A  006C               	dw	108
   241  000F6C  0061               	dw	97
   242  000F6E  0074               	dw	116
   243  000F70  0069               	dw	105
   244  000F72  006F               	dw	111
   245  000F74  006E               	dw	110
   246  000F76  0020               	dw	32
   247  000F78  0044               	dw	68
   248  000F7A  0065               	dw	101
   249  000F7C  006D               	dw	109
   250  000F7E  006F               	dw	111
   251  000F80                     __end_of_sd002:
   252                           	opt callstack 0
   253  000F80                     _sd001:
   254                           	opt callstack 0
   255  000F80  34                 	db	52
   256  000F81  03                 	db	3
   257  000F82  004D               	dw	77
   258  000F84  0069               	dw	105
   259  000F86  0063               	dw	99
   260  000F88  0072               	dw	114
   261  000F8A  006F               	dw	111
   262  000F8C  0063               	dw	99
   263  000F8E  0068               	dw	104
   264  000F90  0069               	dw	105
   265  000F92  0070               	dw	112
   266  000F94  0020               	dw	32
   267  000F96  0054               	dw	84
   268  000F98  0065               	dw	101
   269  000F9A  0063               	dw	99
   270  000F9C  0068               	dw	104
   271  000F9E  006E               	dw	110
   272  000FA0  006F               	dw	111
   273  000FA2  006C               	dw	108
   274  000FA4  006F               	dw	111
   275  000FA6  0067               	dw	103
   276  000FA8  0079               	dw	121
   277  000FAA  0020               	dw	32
   278  000FAC  0049               	dw	73
   279  000FAE  006E               	dw	110
   280  000FB0  0063               	dw	99
   281  000FB2  002E               	dw	46
   282  000FB4                     __end_of_sd001:
   283                           	opt callstack 0
   284  000FB4                     _device_dsc:
   285                           	opt callstack 0
   286  000FB4  12                 	db	18
   287  000FB5  01                 	db	1
   288  000FB6  0200               	dw	512
   289  000FB8  02                 	db	2
   290  000FB9  00                 	db	0
   291  000FBA  00                 	db	0
   292  000FBB  08                 	db	8
   293  000FBC  04D8               	dw	1240
   294  000FBE  000A               	dw	10
   295  000FC0  0100               	dw	256
   296  000FC2  01                 	db	1
   297  000FC3  02                 	db	2
   298  000FC4  00                 	db	0
   299  000FC5  01                 	db	1
   300  000FC6                     __end_of_device_dsc:
   301                           	opt callstack 0
   302  000FC6                     _sd000:
   303                           	opt callstack 0
   304  000FC6  04                 	db	4
   305  000FC7  03                 	db	3
   306  000FC8  0409               	dw	1033
   307  000FCA                     __end_of_sd000:
   308                           	opt callstack 0
   309  0000                     _UEP0bits	set	3878
   310  0000                     _UIEbits	set	3894
   311  0000                     _UADDR	set	3896
   312  0000                     _UIE	set	3894
   313  0000                     _UEIE	set	3895
   314  0000                     _UCFG	set	3897
   315  0000                     _ANCON1bits	set	3913
   316  0000                     _UEP1	set	3879
   317  0000                     _UEP0	set	3878
   318  0000                     _OSCCON	set	4051
   319  0000                     _OSCTUNEbits	set	3995
   320  0000                     _INTCONbits	set	4082
   321  0000                     _IPR2bits	set	4002
   322  0000                     _RCONbits	set	4048
   323  0000                     _UCON	set	3941
   324  0000                     _USTAT	set	3940
   325  0000                     _PIR2bits	set	4001
   326  0000                     _UIRbits	set	3938
   327  0000                     _UCONbits	set	3941
   328  0000                     _UIR	set	3938
   329  0000                     _UEIR	set	3939
   330  0000                     _PIE2bits	set	4000
   331  0000                     _TRISEbits	set	3990
   332  0000                     _LATEbits	set	3981
   333  0000                     _TRISBbits	set	3987
   334  0000                     _PORTBbits	set	3969
   335                           
   336                           ; #config settings
   337  000FCA  00                 	db	0	; dummy byte at the end
   338  0000                     
   339                           	psect	cinit
   340  002AEC                     __pcinit:
   341                           	opt callstack 0
   342  002AEC                     start_initialization:
   343                           	opt callstack 0
   344  002AEC                     __initialization:
   345                           	opt callstack 0
   346                           
   347                           ; Initialize objects allocated to BANK0 (18 bytes)
   348                           ; load TBLPTR registers with __pidataBANK0
   349  002AEC  0EA8               	movlw	low __pidataBANK0
   350  002AEE  6EF6               	movwf	tblptrl,c
   351  002AF0  0E2E               	movlw	high __pidataBANK0
   352  002AF2  6EF7               	movwf	tblptrh,c
   353  002AF4  0E00               	movlw	low (__pidataBANK0 shr (0+16))
   354  002AF6  6EF8               	movwf	tblptru,c
   355  002AF8  EE00  F0E4         	lfsr	0,__pdataBANK0
   356  002AFC  EE10 F012          	lfsr	1,18
   357  002B00                     copy_data0:
   358  002B00  0009               	tblrd		*+
   359  002B02  CFF5 FFEE          	movff	tablat,postinc0
   360  002B06  50E5               	movf	postdec1,w,c
   361  002B08  50E1               	movf	fsr1l,w,c
   362  002B0A  E1FA               	bnz	copy_data0
   363                           
   364                           ; Clear objects allocated to BANK1 (192 bytes)
   365  002B0C  EE01  F000         	lfsr	0,__pbssBANK1
   366  002B10  0EC0               	movlw	192
   367  002B12                     clear_0:
   368  002B12  6AEE               	clrf	postinc0,c
   369  002B14  06E8               	decf	wreg,f,c
   370  002B16  E1FD               	bnz	clear_0
   371                           
   372                           ; Clear objects allocated to BANK0 (132 bytes)
   373  002B18  EE00  F060         	lfsr	0,__pbssBANK0
   374  002B1C  0E84               	movlw	132
   375  002B1E                     clear_1:
   376  002B1E  6AEE               	clrf	postinc0,c
   377  002B20  06E8               	decf	wreg,f,c
   378  002B22  E1FD               	bnz	clear_1
   379                           
   380                           ; Clear objects allocated to COMRAM (39 bytes)
   381  002B24  EE00  F02A         	lfsr	0,__pbssCOMRAM
   382  002B28  0E27               	movlw	39
   383  002B2A                     clear_2:
   384  002B2A  6AEE               	clrf	postinc0,c
   385  002B2C  06E8               	decf	wreg,f,c
   386  002B2E  E1FD               	bnz	clear_2
   387  002B30                     end_of_initialization:
   388                           	opt callstack 0
   389  002B30                     __end_of__initialization:
   390                           	opt callstack 0
   391  002B30  9051               	bcf	int$flags,0,c	;clear compiler interrupt flag (level 1)
   392  002B32  9251               	bcf	int$flags,1,c	;clear compiler interrupt flag (level 2)
   393  002B34  0E00               	movlw	low (__Lmediumconst shr (0+16))
   394  002B36  6EF8               	movwf	tblptru,c
   395  002B38  0100               	movlb	0
   396  002B3A  EF4A  F017         	goto	_main	;jump to C main() function
   397                           
   398                           	psect	bssCOMRAM
   399  00002A                     __pbssCOMRAM:
   400                           	opt callstack 0
   401  00002A                     _USB1msTickCount:
   402                           	opt callstack 0
   403  00002A                     	ds	4
   404  00002E                     APP_LEDUpdateUSBStatus@ledCount:
   405                           	opt callstack 0
   406  00002E                     	ds	2
   407  000030                     _pDst:
   408                           	opt callstack 0
   409  000030                     	ds	2
   410  000032                     _pBDTEntryEP0OutNext:
   411                           	opt callstack 0
   412  000032                     	ds	2
   413  000034                     _pBDTEntryEP0OutCurrent:
   414                           	opt callstack 0
   415  000034                     	ds	2
   416  000036                     _control_signal_bitmap:
   417                           	opt callstack 0
   418  000036                     	ds	1
   419  000037                     _cdc_trf_state:
   420                           	opt callstack 0
   421  000037                     	ds	1
   422  000038                     _USBTicksSinceSuspendEnd:
   423                           	opt callstack 0
   424  000038                     	ds	1
   425  000039                     _USBDeferOUTDataStagePackets:
   426                           	opt callstack 0
   427  000039                     	ds	1
   428  00003A                     _USBDeferINDataStagePackets:
   429                           	opt callstack 0
   430  00003A                     	ds	1
   431  00003B                     _USBStatusStageEnabledFlag2:
   432                           	opt callstack 0
   433  00003B                     	ds	1
   434  00003C                     _USBStatusStageEnabledFlag1:
   435                           	opt callstack 0
   436  00003C                     	ds	1
   437  00003D                     _USBDeferStatusStagePacket:
   438                           	opt callstack 0
   439  00003D                     	ds	1
   440  00003E                     _USBStatusStageTimeoutCounter:
   441                           	opt callstack 0
   442  00003E                     	ds	1
   443  00003F                     _BothEP0OutUOWNsSet:
   444                           	opt callstack 0
   445  00003F                     	ds	1
   446  000040                     _endpoint_number:
   447                           	opt callstack 0
   448  000040                     	ds	1
   449  000041                     _USBBusIsSuspended:
   450                           	opt callstack 0
   451  000041                     	ds	1
   452  000042                     _RemoteWakeup:
   453                           	opt callstack 0
   454  000042                     	ds	1
   455  000043                     _controlTransferState:
   456                           	opt callstack 0
   457  000043                     	ds	1
   458  000044                     _shortPacketStatus:
   459                           	opt callstack 0
   460  000044                     	ds	1
   461  000045                     _USBDeviceState:
   462                           	opt callstack 0
   463  000045                     	ds	1
   464  000046                     _line_coding:
   465                           	opt callstack 0
   466  000046                     	ds	7
   467  00004D                     _USBAlternateInterface:
   468                           	opt callstack 0
   469  00004D                     	ds	2
   470  00004F                     _USTATcopy:
   471                           	opt callstack 0
   472  00004F                     	ds	1
   473  000050                     _USBActiveConfiguration:
   474                           	opt callstack 0
   475  000050                     	ds	1
   476                           
   477                           	psect	bssBANK0
   478  000060                     __pbssBANK0:
   479                           	opt callstack 0
   480  000060                     _cdc_notice:
   481                           	opt callstack 0
   482  000060                     	ds	10
   483  00006A                     _outPipes:
   484                           	opt callstack 0
   485  00006A                     	ds	8
   486  000072                     _inPipes:
   487                           	opt callstack 0
   488  000072                     	ds	6
   489  000078                     _pBDTEntryIn:
   490                           	opt callstack 0
   491  000078                     	ds	6
   492  00007E                     _pBDTEntryOut:
   493                           	opt callstack 0
   494  00007E                     	ds	6
   495  000084                     _BaudRateGen:
   496                           	opt callstack 0
   497  000084                     	ds	4
   498  000088                     _pCDCDst:
   499                           	opt callstack 0
   500  000088                     	ds	3
   501  00008B                     _pCDCSrc:
   502                           	opt callstack 0
   503  00008B                     	ds	3
   504  00008E                     _ep_data_out:
   505                           	opt callstack 0
   506  00008E                     	ds	3
   507  000091                     _ep_data_in:
   508                           	opt callstack 0
   509  000091                     	ds	3
   510  000094                     _CDCDataInHandle:
   511                           	opt callstack 0
   512  000094                     	ds	2
   513  000096                     _CDCDataOutHandle:
   514                           	opt callstack 0
   515  000096                     	ds	2
   516  000098                     _buttonPressed:
   517                           	opt callstack 0
   518  000098                     	ds	1
   519  000099                     _cdc_mem_type:
   520                           	opt callstack 0
   521  000099                     	ds	1
   522  00009A                     _cdc_tx_len:
   523                           	opt callstack 0
   524  00009A                     	ds	1
   525  00009B                     _cdc_rx_len:
   526                           	opt callstack 0
   527  00009B                     	ds	1
   528  00009C                     _cdc_data_rx:
   529                           	opt callstack 0
   530  00009C                     	ds	64
   531  0000DC                     _dummy_encapsulated_cmd_response:
   532                           	opt callstack 0
   533  0000DC                     	ds	8
   534                           
   535                           	psect	dataBANK0
   536  0000E4                     __pdataBANK0:
   537                           	opt callstack 0
   538  0000E4                     _buttonMessage:
   539                           	opt callstack 0
   540  0000E4                     	ds	18
   541                           
   542                           	psect	bssBANK1
   543  000100                     __pbssBANK1:
   544                           	opt callstack 0
   545  000100                     _writeBuffer:
   546                           	opt callstack 0
   547  000100                     	ds	64
   548  000140                     _readBuffer:
   549                           	opt callstack 0
   550  000140                     	ds	64
   551  000180                     _cdc_data_tx:
   552                           	opt callstack 0
   553  000180                     	ds	64
   554                           
   555                           	psect	cstackBANK1
   556  0001C0                     __pcstackBANK1:
   557                           	opt callstack 0
   558  0001C0                     USBTransferOnePacket@ep:
   559                           	opt callstack 0
   560  0001C0                     memset@k:
   561                           	opt callstack 0
   562                           
   563                           ; 2 bytes @ 0x0
   564  0001C0                     	ds	1
   565  0001C1                     USBTransferOnePacket@handle:
   566                           	opt callstack 0
   567                           
   568                           ; 2 bytes @ 0x1
   569  0001C1                     	ds	1
   570  0001C2                     memset@s:
   571                           	opt callstack 0
   572                           
   573                           ; 2 bytes @ 0x2
   574  0001C2                     	ds	1
   575  0001C3                     getsUSBUSART@buffer:
   576                           	opt callstack 0
   577                           
   578                           ; 2 bytes @ 0x3
   579  0001C3                     	ds	2
   580  0001C5                     getsUSBUSART@len:
   581                           	opt callstack 0
   582                           
   583                           ; 1 bytes @ 0x5
   584  0001C5                     	ds	1
   585  0001C6                     ??_APP_DeviceCDCBasicDemoTasks:
   586                           
   587                           ; 1 bytes @ 0x6
   588  0001C6                     	ds	2
   589  0001C8                     APP_DeviceCDCBasicDemoTasks@numBytesRead:
   590                           	opt callstack 0
   591                           
   592                           ; 1 bytes @ 0x8
   593  0001C8                     	ds	1
   594  0001C9                     APP_DeviceCDCBasicDemoTasks@i:
   595                           	opt callstack 0
   596                           
   597                           ; 1 bytes @ 0x9
   598  0001C9                     	ds	1
   599                           
   600                           	psect	cstackBANK0
   601  0000F6                     __pcstackBANK0:
   602                           	opt callstack 0
   603  0000F6                     ??_BUTTON_IsPressed:
   604  0000F6                     ??_BUTTON_Enable:
   605  0000F6                     ??_LED_Enable:
   606  0000F6                     ?_USBTransferOnePacket:
   607                           	opt callstack 0
   608  0000F6                     USBTransferOnePacket@dir:
   609                           	opt callstack 0
   610  0000F6                     putUSBUSART@data:
   611                           	opt callstack 0
   612  0000F6                     putrsUSBUSART@data:
   613                           	opt callstack 0
   614  0000F6                     memset@dest:
   615                           	opt callstack 0
   616                           
   617                           ; 2 bytes @ 0x0
   618  0000F6                     	ds	1
   619  0000F7                     USBTransferOnePacket@data:
   620                           	opt callstack 0
   621                           
   622                           ; 2 bytes @ 0x1
   623  0000F7                     	ds	1
   624  0000F8                     BUTTON_IsPressed@button:
   625                           	opt callstack 0
   626  0000F8                     BUTTON_Enable@button:
   627                           	opt callstack 0
   628  0000F8                     LED_Enable@led:
   629                           	opt callstack 0
   630  0000F8                     putUSBUSART@length:
   631                           	opt callstack 0
   632  0000F8                     putrsUSBUSART@pData:
   633                           	opt callstack 0
   634  0000F8                     memset@c:
   635                           	opt callstack 0
   636                           
   637                           ; 2 bytes @ 0x2
   638  0000F8                     	ds	1
   639  0000F9                     ??_SYSTEM_Initialize:
   640  0000F9                     USBTransferOnePacket@len:
   641                           	opt callstack 0
   642                           
   643                           ; 1 bytes @ 0x3
   644  0000F9                     	ds	1
   645  0000FA                     ??_USBTransferOnePacket:
   646  0000FA                     putrsUSBUSART@len:
   647                           	opt callstack 0
   648  0000FA                     memset@n:
   649                           	opt callstack 0
   650                           
   651                           ; 2 bytes @ 0x4
   652  0000FA                     	ds	1
   653  0000FB                     SYSTEM_Initialize@pll_startup_counter:
   654                           	opt callstack 0
   655                           
   656                           ; 2 bytes @ 0x5
   657  0000FB                     	ds	1
   658  0000FC                     ??_memset:
   659                           
   660                           ; 1 bytes @ 0x6
   661  0000FC                     	ds	1
   662  0000FD                     SYSTEM_Initialize@pll_startup_counter_2775:
   663                           	opt callstack 0
   664                           
   665                           ; 2 bytes @ 0x7
   666  0000FD                     	ds	1
   667  0000FE                     USBDeviceInit@i:
   668                           	opt callstack 0
   669  0000FE                     CDCTxService@i:
   670                           	opt callstack 0
   671                           
   672                           ; 1 bytes @ 0x8
   673  0000FE                     	ds	1
   674  0000FF                     CDCTxService@byte_to_send:
   675                           	opt callstack 0
   676  0000FF                     SYSTEM_Initialize@state:
   677                           	opt callstack 0
   678                           
   679                           ; 1 bytes @ 0x9
   680  0000FF                     	ds	1
   681  000100                     
   682                           ; 1 bytes @ 0xA
   683                           
   684                           	psect	cstackCOMRAM
   685  000001                     __pcstackCOMRAM:
   686                           	opt callstack 0
   687  000001                     ??_LED_On:
   688  000001                     ??_LED_Off:
   689  000001                     ??_USBStdGetDscHandler:
   690  000001                     ??_USBStdGetStatusHandler:
   691  000001                     ??_USBCheckCDCRequest:
   692  000001                     ??i2_BUTTON_Enable:
   693  000001                     ??i2_LED_Enable:
   694  000001                     ?i2_USBTransferOnePacket:
   695                           	opt callstack 0
   696  000001                     USBConfigureEndpoint@direction:
   697                           	opt callstack 0
   698  000001                     USBCtrlTrfTxService@byteToSend:
   699                           	opt callstack 0
   700  000001                     USBCtrlTrfRxService@i:
   701                           	opt callstack 0
   702  000001                     i2USBTransferOnePacket@dir:
   703                           	opt callstack 0
   704  000001                     memcpy@d1:
   705                           	opt callstack 0
   706  000001                     i2memset@dest:
   707                           	opt callstack 0
   708                           
   709                           ; 2 bytes @ 0x0
   710  000001                     	ds	1
   711  000002                     ??_USBConfigureEndpoint:
   712  000002                     USBCtrlTrfRxService@byteToRead:
   713                           	opt callstack 0
   714  000002                     USBCtrlTrfInHandler@lastDTS:
   715                           	opt callstack 0
   716  000002                     i2USBTransferOnePacket@data:
   717                           	opt callstack 0
   718                           
   719                           ; 2 bytes @ 0x1
   720  000002                     	ds	1
   721  000003                     LED_On@led:
   722                           	opt callstack 0
   723  000003                     LED_Off@led:
   724                           	opt callstack 0
   725  000003                     i2BUTTON_Enable@button:
   726                           	opt callstack 0
   727  000003                     i2LED_Enable@led:
   728                           	opt callstack 0
   729  000003                     USBStdGetStatusHandler@p:
   730                           	opt callstack 0
   731  000003                     memcpy@s1:
   732                           	opt callstack 0
   733  000003                     i2memset@c:
   734                           	opt callstack 0
   735                           
   736                           ; 2 bytes @ 0x2
   737  000003                     	ds	1
   738  000004                     ??_APP_LEDUpdateUSBStatus:
   739  000004                     ??i2_SYSTEM_Initialize:
   740  000004                     i2USBTransferOnePacket@len:
   741                           	opt callstack 0
   742                           
   743                           ; 1 bytes @ 0x3
   744  000004                     	ds	1
   745  000005                     ??i2_USBTransferOnePacket:
   746  000005                     memcpy@n:
   747                           	opt callstack 0
   748  000005                     i2memset@n:
   749                           	opt callstack 0
   750                           
   751                           ; 2 bytes @ 0x4
   752  000005                     	ds	1
   753  000006                     USBConfigureEndpoint@EPNum:
   754                           	opt callstack 0
   755  000006                     i2SYSTEM_Initialize@pll_startup_counter:
   756                           	opt callstack 0
   757                           
   758                           ; 2 bytes @ 0x5
   759  000006                     	ds	1
   760  000007                     ??i2_memset:
   761  000007                     USBConfigureEndpoint@handle:
   762                           	opt callstack 0
   763  000007                     memcpy@d:
   764                           	opt callstack 0
   765                           
   766                           ; 2 bytes @ 0x6
   767  000007                     	ds	1
   768  000008                     i2SYSTEM_Initialize@pll_startup_counter_2775:
   769                           	opt callstack 0
   770                           
   771                           ; 2 bytes @ 0x7
   772  000008                     	ds	1
   773  000009                     USBEnableEndpoint@options:
   774                           	opt callstack 0
   775  000009                     i2USBTransferOnePacket@ep:
   776                           	opt callstack 0
   777  000009                     memcpy@s:
   778                           	opt callstack 0
   779  000009                     i2memset@k:
   780                           	opt callstack 0
   781                           
   782                           ; 2 bytes @ 0x8
   783  000009                     	ds	1
   784  00000A                     i2SYSTEM_Initialize@state:
   785                           	opt callstack 0
   786  00000A                     USBEnableEndpoint@p:
   787                           	opt callstack 0
   788  00000A                     i2USBTransferOnePacket@handle:
   789                           	opt callstack 0
   790                           
   791                           ; 2 bytes @ 0x9
   792  00000A                     	ds	1
   793  00000B                     memcpy@tmp:
   794                           	opt callstack 0
   795  00000B                     i2memset@s:
   796                           	opt callstack 0
   797                           
   798                           ; 2 bytes @ 0xA
   799  00000B                     	ds	1
   800  00000C                     USBEnableEndpoint@ep:
   801                           	opt callstack 0
   802                           
   803                           ; 1 bytes @ 0xB
   804  00000C                     	ds	1
   805  00000D                     i2USBDeviceInit@i:
   806                           	opt callstack 0
   807  00000D                     USER_USB_CALLBACK_EVENT_HANDLER@event:
   808                           	opt callstack 0
   809                           
   810                           ; 2 bytes @ 0xC
   811  00000D                     	ds	2
   812  00000F                     USER_USB_CALLBACK_EVENT_HANDLER@pdata:
   813                           	opt callstack 0
   814                           
   815                           ; 2 bytes @ 0xE
   816  00000F                     	ds	2
   817  000011                     USER_USB_CALLBACK_EVENT_HANDLER@size:
   818                           	opt callstack 0
   819                           
   820                           ; 2 bytes @ 0x10
   821  000011                     	ds	2
   822  000013                     ??_USER_USB_CALLBACK_EVENT_HANDLER:
   823                           
   824                           ; 1 bytes @ 0x12
   825  000013                     	ds	2
   826  000015                     ??_USBStdFeatureReqHandler:
   827  000015                     USBStdSetCfgHandler@i:
   828                           	opt callstack 0
   829                           
   830                           ; 1 bytes @ 0x14
   831  000015                     	ds	2
   832  000017                     USBStdFeatureReqHandler@pUEP:
   833                           	opt callstack 0
   834                           
   835                           ; 2 bytes @ 0x16
   836  000017                     	ds	2
   837  000019                     USBStdFeatureReqHandler@current_ep_data:
   838                           	opt callstack 0
   839                           
   840                           ; 1 bytes @ 0x18
   841  000019                     	ds	1
   842  00001A                     USBStdFeatureReqHandler@p:
   843                           	opt callstack 0
   844                           
   845                           ; 2 bytes @ 0x19
   846  00001A                     	ds	2
   847  00001C                     ??_USBCheckStdRequest:
   848                           
   849                           ; 1 bytes @ 0x1B
   850  00001C                     	ds	2
   851  00001E                     ??_USBCtrlEPService:
   852  00001E                     
   853                           ; 1 bytes @ 0x1D
   854  00001E                     	ds	1
   855  00001F                     USBDeviceTasks@i:
   856                           	opt callstack 0
   857                           
   858                           ; 1 bytes @ 0x1E
   859  00001F                     	ds	1
   860  000020                     ??_SYS_InterruptHigh:
   861                           
   862                           ; 1 bytes @ 0x1F
   863  000020                     	ds	10
   864                           
   865 ;;
   866 ;;Main: autosize = 0, tempsize = 0, incstack = 0, save=0
   867 ;;
   868 ;; *************** function _main *****************
   869 ;; Defined at:
   870 ;;		line 45 in file "../demo_src/main.c"
   871 ;; Parameters:    Size  Location     Type
   872 ;;		None
   873 ;; Auto vars:     Size  Location     Type
   874 ;;		None
   875 ;; Return value:  Size  Location     Type
   876 ;;                  1    wreg      void 
   877 ;; Registers used:
   878 ;;		wreg, fsr1l, fsr1h, fsr2l, fsr2h, status,2, status,0, prodl, prodh, cstack
   879 ;; Tracked objects:
   880 ;;		On entry : 0/0
   881 ;;		On exit  : 0/0
   882 ;;		Unchanged: 0/0
   883 ;; Data sizes:     COMRAM   BANK0   BANK1   BANK2   BANK3   BANK4   BANK5   BANK6   BANK7   BANK8   BANK9  BANK10  BANK1
      +1  BANK12  BANK13  BANK14
   884 ;;      Params:         0       0       0       0       0       0       0       0       0       0       0       0       
      +0       0       0       0
   885 ;;      Locals:         0       0       0       0       0       0       0       0       0       0       0       0       
      +0       0       0       0
   886 ;;      Temps:          0       0       0       0       0       0       0       0       0       0       0       0       
      +0       0       0       0
   887 ;;      Totals:         0       0       0       0       0       0       0       0       0       0       0       0       
      +0       0       0       0
   888 ;;Total ram usage:        0 bytes
   889 ;; Hardware stack levels required when called:   13
   890 ;; This function calls:
   891 ;;		_APP_DeviceCDCBasicDemoTasks
   892 ;;		_SYSTEM_Initialize
   893 ;;		_USBDeviceAttach
   894 ;;		_USBDeviceInit
   895 ;; This function is called by:
   896 ;;		Startup code after reset
   897 ;; This function uses a non-reentrant model
   898 ;;
   899                           
   900                           	psect	text0
   901  002E94                     __ptext0:
   902                           	opt callstack 0
   903  002E94                     _main:
   904                           	opt callstack 18
   905                           
   906                           ;../demo_src/main.c: 47:     SYSTEM_Initialize(SYSTEM_STATE_USB_START);
   907                           
   908                           ;incstack = 0
   909  002E94  0E00               	movlw	0
   910  002E96  ECA6  F014         	call	_SYSTEM_Initialize
   911                           
   912                           ;../demo_src/main.c: 49:     USBDeviceInit();
   913  002E9A  EC0A  F00B         	call	_USBDeviceInit	;wreg free
   914                           
   915                           ;../demo_src/main.c: 50:     USBDeviceAttach();
   916  002E9E  EC74  F016         	call	_USBDeviceAttach	;wreg free
   917  002EA2                     l5603:
   918                           
   919                           ;../demo_src/main.c: 53:     {;../demo_src/main.c: 73:         APP_DeviceCDCBasicDemoTas
      +                          ks();
   920  002EA2  ECF3  F00E         	call	_APP_DeviceCDCBasicDemoTasks	;wreg free
   921  002EA6  D7FD               	goto	l5603
   922  002EA8                     __end_of_main:
   923                           	opt callstack 0
   924                           
   925 ;; *************** function _USBDeviceInit *****************
   926 ;; Defined at:
   927 ;;		line 281 in file "../../../../../../framework/usb/src/usb_device.c"
   928 ;; Parameters:    Size  Location     Type
   929 ;;		None
   930 ;; Auto vars:     Size  Location     Type
   931 ;;  i               1    8[BANK0 ] unsigned char 
   932 ;; Return value:  Size  Location     Type
   933 ;;                  1    wreg      void 
   934 ;; Registers used:
   935 ;;		wreg, fsr2l, fsr2h, status,2, status,0, prodl, prodh, cstack
   936 ;; Tracked objects:
   937 ;;		On entry : 0/0
   938 ;;		On exit  : 0/0
   939 ;;		Unchanged: 0/0
   940 ;; Data sizes:     COMRAM   BANK0   BANK1   BANK2   BANK3   BANK4   BANK5   BANK6   BANK7   BANK8   BANK9  BANK10  BANK1
      +1  BANK12  BANK13  BANK14
   941 ;;      Params:         0       0       0       0       0       0       0       0       0       0       0       0       
      +0       0       0       0
   942 ;;      Locals:         0       1       0       0       0       0       0       0       0       0       0       0       
      +0       0       0       0
   943 ;;      Temps:          0       0       0       0       0       0       0       0       0       0       0       0       
      +0       0       0       0
   944 ;;      Totals:         0       1       0       0       0       0       0       0       0       0       0       0       
      +0       0       0       0
   945 ;;Total ram usage:        1 bytes
   946 ;; Hardware stack levels used:    1
   947 ;; Hardware stack levels required when called:   11
   948 ;; This function calls:
   949 ;;		_memset
   950 ;; This function is called by:
   951 ;;		_main
   952 ;; This function uses a non-reentrant model
   953 ;;
   954                           
   955                           	psect	text1
   956  001614                     __ptext1:
   957                           	opt callstack 0
   958  001614                     _USBDeviceInit:
   959                           	opt callstack 19
   960                           
   961                           ;../../../../../../framework/usb/src/usb_device.c: 283:     uint8_t i;;../../../../../..
      +                          /framework/usb/src/usb_device.c: 285:     {PIE2bits.USBIE = 0;};
   962                           
   963                           ;incstack = 0
   964  001614  98A0               	bcf	4000,4,c	;volatile
   965                           
   966                           ;../../../../../../framework/usb/src/usb_device.c: 292:     {UEIR = 0;};
   967  001616  0E00               	movlw	0
   968  001618  6E63               	movwf	3939,c	;volatile
   969                           
   970                           ;../../../../../../framework/usb/src/usb_device.c: 295:     {UIR = 0;};
   971  00161A  0E00               	movlw	0
   972  00161C  6E62               	movwf	3938,c	;volatile
   973                           
   974                           ;../../../../../../framework/usb/src/usb_device.c: 298:     UEP0 = 0;
   975  00161E  0E00               	movlw	0
   976  001620  010F               	movlb	15	; () banked
   977  001622  6F26               	movwf	38,b	;volatile
   978                           
   979                           ; BSR set to: 15
   980                           ;../../../../../../framework/usb/src/usb_device.c: 300:     memset((void*)&UEP1,0x00,(2)
      +                          );;
   981  001624  0E27               	movlw	39
   982  001626  0100               	movlb	0	; () banked
   983  001628  6FF6               	movwf	memset@dest& (0+255),b
   984  00162A  0E0F               	movlw	15
   985  00162C  6FF7               	movwf	(memset@dest+1)& (0+255),b
   986  00162E  0E00               	movlw	0
   987  001630  6FF9               	movwf	(memset@c+1)& (0+255),b
   988  001632  0E00               	movlw	0
   989  001634  6FF8               	movwf	memset@c& (0+255),b
   990  001636  0E00               	movlw	0
   991  001638  6FFB               	movwf	(memset@n+1)& (0+255),b
   992  00163A  0E02               	movlw	2
   993  00163C  6FFA               	movwf	memset@n& (0+255),b
   994  00163E  EC1D  F009         	call	_memset	;wreg free
   995                           
   996                           ;../../../../../../framework/usb/src/usb_device.c: 302:     { UCFG = 0x10 | 0x00 | 0x04 
      +                          | 0x02; UEIE = 0x9F; UIE = 0x39 | 0x40 | 0x02; };
   997  001642  0E16               	movlw	22
   998  001644  010F               	movlb	15	; () banked
   999  001646  6F39               	movwf	57,b	;volatile
  1000                           
  1001                           ; BSR set to: 15
  1002  001648  0E9F               	movlw	159
  1003  00164A  6F37               	movwf	55,b	;volatile
  1004                           
  1005                           ; BSR set to: 15
  1006  00164C  0E7B               	movlw	123
  1007  00164E  6F36               	movwf	54,b	;volatile
  1008                           
  1009                           ; BSR set to: 15
  1010                           ;../../../../../../framework/usb/src/usb_device.c: 311:     for(i = 0; i < (sizeof(BDT)/
      +                          sizeof(BDT_ENTRY)); i++)
  1011  001650  0E00               	movlw	0
  1012  001652  0100               	movlb	0	; () banked
  1013  001654  6FFE               	movwf	USBDeviceInit@i& (0+255),b
  1014  001656                     l5441:
  1015                           
  1016                           ; BSR set to: 0
  1017                           ;../../../../../../framework/usb/src/usb_device.c: 312:     {;../../../../../../framewor
      +                          k/usb/src/usb_device.c: 313:         BDT[i].Val = 0x00;
  1018  001656  51FE               	movf	USBDeviceInit@i& (0+255),w,b
  1019  001658  0D04               	mullw	4
  1020  00165A  0E00               	movlw	0
  1021  00165C  24F3               	addwf	prodl,w,c
  1022  00165E  6ED9               	movwf	fsr2l,c
  1023  001660  0E04               	movlw	4
  1024  001662  20F4               	addwfc	prodh,w,c
  1025  001664  6EDA               	movwf	fsr2h,c
  1026  001666  6ADE               	clrf	postinc2,c
  1027  001668  6ADE               	clrf	postinc2,c
  1028  00166A  6ADE               	clrf	postinc2,c
  1029  00166C  6ADD               	clrf	postdec2,c
  1030                           
  1031                           ; BSR set to: 0
  1032                           ;../../../../../../framework/usb/src/usb_device.c: 314:     }
  1033  00166E  2BFE               	incf	USBDeviceInit@i& (0+255),f,b
  1034                           
  1035                           ; BSR set to: 0
  1036  001670  0E0B               	movlw	11
  1037  001672  65FE               	cpfsgt	USBDeviceInit@i& (0+255),b
  1038  001674  D7F0               	goto	l5441
  1039                           
  1040                           ; BSR set to: 0
  1041                           ;../../../../../../framework/usb/src/usb_device.c: 317:     UCONbits.PPBRST = 1;
  1042  001676  8C65               	bsf	3941,6,c	;volatile
  1043                           
  1044                           ; BSR set to: 0
  1045                           ;../../../../../../framework/usb/src/usb_device.c: 320:     UADDR = 0x00;
  1046  001678  0E00               	movlw	0
  1047  00167A  010F               	movlb	15	; () banked
  1048  00167C  6F38               	movwf	56,b	;volatile
  1049                           
  1050                           ; BSR set to: 15
  1051                           ;../../../../../../framework/usb/src/usb_device.c: 323:     UCONbits.PKTDIS = 0;
  1052  00167E  9865               	bcf	3941,4,c	;volatile
  1053                           
  1054                           ; BSR set to: 15
  1055                           ;../../../../../../framework/usb/src/usb_device.c: 326:     UCONbits.PPBRST = 0;
  1056  001680  9C65               	bcf	3941,6,c	;volatile
  1057  001682                     l5453:
  1058                           
  1059                           ;../../../../../../framework/usb/src/usb_device.c: 330:     {;../../../../../../framewor
      +                          k/usb/src/usb_device.c: 331:         (UIR &= 0xF7);
  1060  001682  9662               	bcf	3938,3,c	;volatile
  1061                           
  1062                           ;../../../../../../framework/usb/src/usb_device.c: 333:         inPipes[0].info.Val = 0;
  1063  001684  0E00               	movlw	0
  1064  001686  0100               	movlb	0	; () banked
  1065  001688  6F75               	movwf	(_inPipes+3)& (0+255),b	;volatile
  1066                           
  1067                           ; BSR set to: 0
  1068                           ;../../../../../../framework/usb/src/usb_device.c: 334:         outPipes[0].info.Val = 0
      +                          ;
  1069  00168A  0E00               	movlw	0
  1070  00168C  6F6D               	movwf	(_outPipes+3)& (0+255),b	;volatile
  1071                           
  1072                           ; BSR set to: 0
  1073                           ;../../../../../../framework/usb/src/usb_device.c: 335:         outPipes[0].wCount.Val =
      +                           0;
  1074  00168E  0E00               	movlw	0
  1075  001690  6F6F               	movwf	(_outPipes+5)& (0+255),b	;volatile
  1076  001692  0E00               	movlw	0
  1077  001694  6F6E               	movwf	(_outPipes+4)& (0+255),b	;volatile
  1078                           
  1079                           ; BSR set to: 0
  1080                           ;../../../../../../framework/usb/src/usb_device.c: 336:     }while(UIRbits.TRNIF == 1);
  1081  001696  B662               	btfsc	3938,3,c	;volatile
  1082  001698  D7F4               	goto	l5453
  1083                           
  1084                           ; BSR set to: 0
  1085                           ;../../../../../../framework/usb/src/usb_device.c: 340:     USBStatusStageEnabledFlag1 =
      +                           1;
  1086  00169A  0E01               	movlw	1
  1087  00169C  6E3C               	movwf	_USBStatusStageEnabledFlag1,c	;volatile
  1088                           
  1089                           ;../../../../../../framework/usb/src/usb_device.c: 341:     USBStatusStageEnabledFlag2 =
      +                           1;
  1090  00169E  0E01               	movlw	1
  1091  0016A0  6E3B               	movwf	_USBStatusStageEnabledFlag2,c	;volatile
  1092                           
  1093                           ;../../../../../../framework/usb/src/usb_device.c: 343:     USBDeferINDataStagePackets =
      +                           0;
  1094  0016A2  0E00               	movlw	0
  1095  0016A4  6E3A               	movwf	_USBDeferINDataStagePackets,c	;volatile
  1096                           
  1097                           ;../../../../../../framework/usb/src/usb_device.c: 344:     USBDeferOUTDataStagePackets 
      +                          = 0;
  1098  0016A6  0E00               	movlw	0
  1099  0016A8  6E39               	movwf	_USBDeferOUTDataStagePackets,c	;volatile
  1100                           
  1101                           ;../../../../../../framework/usb/src/usb_device.c: 345:     USBBusIsSuspended = 0;
  1102  0016AA  0E00               	movlw	0
  1103  0016AC  6E41               	movwf	_USBBusIsSuspended,c	;volatile
  1104                           
  1105                           ;../../../../../../framework/usb/src/usb_device.c: 349:     for(i = 0; i < (uint8_t)(2 +
      +                          1u); i++)
  1106  0016AE  0E00               	movlw	0
  1107  0016B0  6FFE               	movwf	USBDeviceInit@i& (0+255),b
  1108  0016B2                     l5469:
  1109                           
  1110                           ; BSR set to: 0
  1111                           ;../../../../../../framework/usb/src/usb_device.c: 350:     {;../../../../../../framewor
      +                          k/usb/src/usb_device.c: 351:         pBDTEntryIn[i] = 0u;
  1112  0016B2  51FE               	movf	USBDeviceInit@i& (0+255),w,b
  1113  0016B4  0D02               	mullw	2
  1114  0016B6  0E78               	movlw	low _pBDTEntryIn
  1115  0016B8  24F3               	addwf	prodl,w,c
  1116  0016BA  6ED9               	movwf	fsr2l,c
  1117  0016BC  0E00               	movlw	high _pBDTEntryIn
  1118  0016BE  20F4               	addwfc	prodh,w,c
  1119  0016C0  6EDA               	movwf	fsr2h,c
  1120  0016C2  0E00               	movlw	0
  1121  0016C4  6EDE               	movwf	postinc2,c
  1122  0016C6  0E00               	movlw	0
  1123  0016C8  6EDD               	movwf	postdec2,c
  1124                           
  1125                           ;../../../../../../framework/usb/src/usb_device.c: 352:         pBDTEntryOut[i] = 0u;
  1126  0016CA  51FE               	movf	USBDeviceInit@i& (0+255),w,b
  1127  0016CC  0D02               	mullw	2
  1128  0016CE  0E7E               	movlw	low _pBDTEntryOut
  1129  0016D0  24F3               	addwf	prodl,w,c
  1130  0016D2  6ED9               	movwf	fsr2l,c
  1131  0016D4  0E00               	movlw	high _pBDTEntryOut
  1132  0016D6  20F4               	addwfc	prodh,w,c
  1133  0016D8  6EDA               	movwf	fsr2h,c
  1134  0016DA  0E00               	movlw	0
  1135  0016DC  6EDE               	movwf	postinc2,c
  1136  0016DE  0E00               	movlw	0
  1137  0016E0  6EDD               	movwf	postdec2,c
  1138                           
  1139                           ; BSR set to: 0
  1140                           ;../../../../../../framework/usb/src/usb_device.c: 353:         ep_data_in[i].Val = 0u;
  1141  0016E2  0E91               	movlw	low _ep_data_in
  1142  0016E4  25FE               	addwf	USBDeviceInit@i& (0+255),w,b
  1143  0016E6  6ED9               	movwf	fsr2l,c
  1144  0016E8  6ADA               	clrf	fsr2h,c
  1145  0016EA  0E00               	movlw	high _ep_data_in
  1146  0016EC  22DA               	addwfc	fsr2h,f,c
  1147  0016EE  0E00               	movlw	0
  1148  0016F0  6EDF               	movwf	indf2,c
  1149                           
  1150                           ; BSR set to: 0
  1151                           ;../../../../../../framework/usb/src/usb_device.c: 354:         ep_data_out[i].Val = 0u;
  1152  0016F2  0E8E               	movlw	low _ep_data_out
  1153  0016F4  25FE               	addwf	USBDeviceInit@i& (0+255),w,b
  1154  0016F6  6ED9               	movwf	fsr2l,c
  1155  0016F8  6ADA               	clrf	fsr2h,c
  1156  0016FA  0E00               	movlw	high _ep_data_out
  1157  0016FC  22DA               	addwfc	fsr2h,f,c
  1158  0016FE  0E00               	movlw	0
  1159  001700  6EDF               	movwf	indf2,c
  1160                           
  1161                           ; BSR set to: 0
  1162                           ;../../../../../../framework/usb/src/usb_device.c: 355:     }
  1163  001702  2BFE               	incf	USBDeviceInit@i& (0+255),f,b
  1164                           
  1165                           ; BSR set to: 0
  1166  001704  0E02               	movlw	2
  1167  001706  65FE               	cpfsgt	USBDeviceInit@i& (0+255),b
  1168  001708  D7D4               	goto	l5469
  1169                           
  1170                           ; BSR set to: 0
  1171                           ;../../../../../../framework/usb/src/usb_device.c: 358:     pBDTEntryIn[0] = (volatile B
      +                          DT_ENTRY*)&BDT[2];
  1172  00170A  0E08               	movlw	8
  1173  00170C  6F78               	movwf	_pBDTEntryIn& (0+255),b
  1174  00170E  0E04               	movlw	4
  1175  001710  6F79               	movwf	(_pBDTEntryIn+1)& (0+255),b
  1176                           
  1177                           ; BSR set to: 0
  1178                           ;../../../../../../framework/usb/src/usb_device.c: 360:     UEP0 = 0x06|0x10;
  1179  001712  0E16               	movlw	22
  1180  001714  010F               	movlb	15	; () banked
  1181  001716  6F26               	movwf	38,b	;volatile
  1182                           
  1183                           ; BSR set to: 15
  1184                           ;../../../../../../framework/usb/src/usb_device.c: 362:     BDT[0].ADR = ((uint16_t)(&Se
      +                          tupPkt));
  1185  001718  0E04               	movlw	4
  1186  00171A  0104               	movlb	4	; () banked
  1187  00171C  6F03               	movwf	3,b	;volatile
  1188  00171E  0E30               	movlw	48
  1189  001720  6F02               	movwf	2,b	;volatile
  1190                           
  1191                           ; BSR set to: 4
  1192                           ;../../../../../../framework/usb/src/usb_device.c: 363:     BDT[0].CNT = 8;
  1193  001722  0E08               	movlw	8
  1194  001724  6F01               	movwf	1,b	;volatile
  1195                           
  1196                           ; BSR set to: 4
  1197                           ;../../../../../../framework/usb/src/usb_device.c: 364:     BDT[0].STAT.Val = 0x00|0x04;
  1198  001726  0E04               	movlw	4
  1199  001728  6F00               	movwf	0,b	;volatile
  1200                           
  1201                           ; BSR set to: 4
  1202                           ;../../../../../../framework/usb/src/usb_device.c: 365:     BDT[0].STAT.Val |= 0x80;
  1203  00172A  8F00               	bsf	0,7,b	;volatile
  1204                           
  1205                           ; BSR set to: 4
  1206                           ;../../../../../../framework/usb/src/usb_device.c: 368:     USBActiveConfiguration = 0;
  1207  00172C  0E00               	movlw	0
  1208  00172E  6E50               	movwf	_USBActiveConfiguration,c	;volatile
  1209                           
  1210                           ; BSR set to: 4
  1211                           ;../../../../../../framework/usb/src/usb_device.c: 370:     USB1msTickCount = 0;
  1212  001730  0E00               	movlw	0
  1213  001732  6E2A               	movwf	_USB1msTickCount,c	;volatile
  1214  001734  0E00               	movlw	0
  1215  001736  6E2B               	movwf	_USB1msTickCount+1,c	;volatile
  1216  001738  0E00               	movlw	0
  1217  00173A  6E2C               	movwf	_USB1msTickCount+2,c	;volatile
  1218  00173C  0E00               	movlw	0
  1219  00173E  6E2D               	movwf	_USB1msTickCount+3,c	;volatile
  1220                           
  1221                           ; BSR set to: 4
  1222                           ;../../../../../../framework/usb/src/usb_device.c: 371:     USBTicksSinceSuspendEnd = 0;
  1223  001740  0E00               	movlw	0
  1224  001742  6E38               	movwf	_USBTicksSinceSuspendEnd,c	;volatile
  1225                           
  1226                           ; BSR set to: 4
  1227                           ;../../../../../../framework/usb/src/usb_device.c: 374:     USBDeviceState = DETACHED_ST
      +                          ATE;
  1228  001744  0E00               	movlw	0
  1229  001746  6E45               	movwf	_USBDeviceState,c	;volatile
  1230                           
  1231                           ; BSR set to: 4
  1232  001748  0012               	return		;funcret
  1233  00174A                     __end_of_USBDeviceInit:
  1234                           	opt callstack 0
  1235                           
  1236 ;; *************** function _memset *****************
  1237 ;; Defined at:
  1238 ;;		line 4 in file "C:\Program Files (x86)\Microchip\xc8\v2.05\pic\sources\c99\common\memset.c"
  1239 ;; Parameters:    Size  Location     Type
  1240 ;;  dest            2    0[BANK0 ] PTR void 
  1241 ;;		 -> USBAlternateInterface(2), BDT(48), UEP1(1), 
  1242 ;;  c               2    2[BANK0 ] int 
  1243 ;;  n               2    4[BANK0 ] unsigned int 
  1244 ;; Auto vars:     Size  Location     Type
  1245 ;;  s               2    2[BANK1 ] PTR unsigned char 
  1246 ;;		 -> USBAlternateInterface(2), BDT(48), UEP1(1), 
  1247 ;;  k               2    0[BANK1 ] unsigned int 
  1248 ;; Return value:  Size  Location     Type
  1249 ;;                  2    0[BANK0 ] PTR void 
  1250 ;; Registers used:
  1251 ;;		wreg, fsr2l, fsr2h, status,2, status,0
  1252 ;; Tracked objects:
  1253 ;;		On entry : 0/0
  1254 ;;		On exit  : 0/0
  1255 ;;		Unchanged: 0/0
  1256 ;; Data sizes:     COMRAM   BANK0   BANK1   BANK2   BANK3   BANK4   BANK5   BANK6   BANK7   BANK8   BANK9  BANK10  BANK1
      +1  BANK12  BANK13  BANK14
  1257 ;;      Params:         0       6       0       0       0       0       0       0       0       0       0       0       
      +0       0       0       0
  1258 ;;      Locals:         0       0       4       0       0       0       0       0       0       0       0       0       
      +0       0       0       0
  1259 ;;      Temps:          0       2       0       0       0       0       0       0       0       0       0       0       
      +0       0       0       0
  1260 ;;      Totals:         0       8       4       0       0       0       0       0       0       0       0       0       
      +0       0       0       0
  1261 ;;Total ram usage:       12 bytes
  1262 ;; Hardware stack levels used:    1
  1263 ;; Hardware stack levels required when called:   10
  1264 ;; This function calls:
  1265 ;;		Nothing
  1266 ;; This function is called by:
  1267 ;;		_USBDeviceInit
  1268 ;; This function uses a non-reentrant model
  1269 ;;
  1270                           
  1271                           	psect	text2
  1272  00123A                     __ptext2:
  1273                           	opt callstack 0
  1274  00123A                     _memset:
  1275                           	opt callstack 19
  1276                           
  1277                           ; BSR set to: 4
  1278                           ;incstack = 0
  1279  00123A  C0F6  F1C2         	movff	memset@dest,memset@s
  1280  00123E  C0F7  F1C3         	movff	memset@dest+1,memset@s+1
  1281  001242  0100               	movlb	0	; () banked
  1282  001244  51FA               	movf	memset@n& (0+255),w,b
  1283  001246  11FB               	iorwf	(memset@n+1)& (0+255),w,b
  1284  001248  B4D8               	btfsc	status,2,c
  1285  00124A  0012               	return	
  1286                           
  1287                           ; BSR set to: 0
  1288  00124C  C1C2  FFD9         	movff	memset@s,fsr2l
  1289  001250  C1C3  FFDA         	movff	memset@s+1,fsr2h
  1290  001254  C0F8  FFDF         	movff	memset@c,indf2
  1291                           
  1292                           ; BSR set to: 0
  1293  001258  51FA               	movf	memset@n& (0+255),w,b
  1294  00125A  0101               	movlb	1	; () banked
  1295  00125C  25C2               	addwf	memset@s& (0+255),w,b
  1296  00125E  0100               	movlb	0	; () banked
  1297  001260  6FFC               	movwf	??_memset& (0+255),b
  1298  001262  51FB               	movf	(memset@n+1)& (0+255),w,b
  1299  001264  0101               	movlb	1	; () banked
  1300  001266  21C3               	addwfc	(memset@s+1)& (0+255),w,b
  1301  001268  0100               	movlb	0	; () banked
  1302  00126A  6FFD               	movwf	(??_memset+1)& (0+255),b
  1303  00126C  0EFF               	movlw	255
  1304  00126E  25FC               	addwf	??_memset& (0+255),w,b
  1305  001270  6ED9               	movwf	fsr2l,c
  1306  001272  0EFF               	movlw	255
  1307  001274  21FD               	addwfc	(??_memset+1)& (0+255),w,b
  1308  001276  6EDA               	movwf	fsr2h,c
  1309  001278  C0F8  FFDF         	movff	memset@c,indf2
  1310  00127C  51FB               	movf	(memset@n+1)& (0+255),w,b
  1311  00127E  E104               	bnz	l5269
  1312  001280  0E03               	movlw	3
  1313  001282  5DFA               	subwf	memset@n& (0+255),w,b
  1314  001284  A0D8               	btfss	status,0,c
  1315  001286  0012               	return	
  1316  001288                     l5269:
  1317                           
  1318                           ; BSR set to: 0
  1319  001288  0101               	movlb	1	; () banked
  1320  00128A  EE20 F001          	lfsr	2,1
  1321  00128E  51C2               	movf	memset@s& (0+255),w,b
  1322  001290  26D9               	addwf	fsr2l,f,c
  1323  001292  51C3               	movf	(memset@s+1)& (0+255),w,b
  1324  001294  22DA               	addwfc	fsr2h,f,c
  1325  001296  C0F8  FFDF         	movff	memset@c,indf2
  1326  00129A  EE20 F002          	lfsr	2,2
  1327  00129E  51C2               	movf	memset@s& (0+255),w,b
  1328  0012A0  26D9               	addwf	fsr2l,f,c
  1329  0012A2  51C3               	movf	(memset@s+1)& (0+255),w,b
  1330  0012A4  22DA               	addwfc	fsr2h,f,c
  1331  0012A6  C0F8  FFDF         	movff	memset@c,indf2
  1332  0012AA  0100               	movlb	0	; () banked
  1333  0012AC  51FA               	movf	memset@n& (0+255),w,b
  1334  0012AE  0101               	movlb	1	; () banked
  1335  0012B0  25C2               	addwf	memset@s& (0+255),w,b
  1336  0012B2  0100               	movlb	0	; () banked
  1337  0012B4  6FFC               	movwf	??_memset& (0+255),b
  1338  0012B6  51FB               	movf	(memset@n+1)& (0+255),w,b
  1339  0012B8  0101               	movlb	1	; () banked
  1340  0012BA  21C3               	addwfc	(memset@s+1)& (0+255),w,b
  1341  0012BC  0100               	movlb	0	; () banked
  1342  0012BE  6FFD               	movwf	(??_memset+1)& (0+255),b
  1343  0012C0  0EFE               	movlw	254
  1344  0012C2  25FC               	addwf	??_memset& (0+255),w,b
  1345  0012C4  6ED9               	movwf	fsr2l,c
  1346  0012C6  0EFF               	movlw	255
  1347  0012C8  21FD               	addwfc	(??_memset+1)& (0+255),w,b
  1348  0012CA  6EDA               	movwf	fsr2h,c
  1349  0012CC  C0F8  FFDF         	movff	memset@c,indf2
  1350  0012D0  51FA               	movf	memset@n& (0+255),w,b
  1351  0012D2  0101               	movlb	1	; () banked
  1352  0012D4  25C2               	addwf	memset@s& (0+255),w,b
  1353  0012D6  0100               	movlb	0	; () banked
  1354  0012D8  6FFC               	movwf	??_memset& (0+255),b
  1355  0012DA  51FB               	movf	(memset@n+1)& (0+255),w,b
  1356  0012DC  0101               	movlb	1	; () banked
  1357  0012DE  21C3               	addwfc	(memset@s+1)& (0+255),w,b
  1358  0012E0  0100               	movlb	0	; () banked
  1359  0012E2  6FFD               	movwf	(??_memset+1)& (0+255),b
  1360  0012E4  0EFD               	movlw	253
  1361  0012E6  25FC               	addwf	??_memset& (0+255),w,b
  1362  0012E8  6ED9               	movwf	fsr2l,c
  1363  0012EA  0EFF               	movlw	255
  1364  0012EC  21FD               	addwfc	(??_memset+1)& (0+255),w,b
  1365  0012EE  6EDA               	movwf	fsr2h,c
  1366  0012F0  C0F8  FFDF         	movff	memset@c,indf2
  1367                           
  1368                           ; BSR set to: 0
  1369  0012F4  51FB               	movf	(memset@n+1)& (0+255),w,b
  1370  0012F6  E104               	bnz	l5275
  1371  0012F8  0E07               	movlw	7
  1372  0012FA  5DFA               	subwf	memset@n& (0+255),w,b
  1373  0012FC  A0D8               	btfss	status,0,c
  1374  0012FE  0012               	return	
  1375  001300                     l5275:
  1376                           
  1377                           ; BSR set to: 0
  1378  001300  0101               	movlb	1	; () banked
  1379  001302  EE20 F003          	lfsr	2,3
  1380  001306  51C2               	movf	memset@s& (0+255),w,b
  1381  001308  26D9               	addwf	fsr2l,f,c
  1382  00130A  51C3               	movf	(memset@s+1)& (0+255),w,b
  1383  00130C  22DA               	addwfc	fsr2h,f,c
  1384  00130E  C0F8  FFDF         	movff	memset@c,indf2
  1385  001312  0100               	movlb	0	; () banked
  1386  001314  51FA               	movf	memset@n& (0+255),w,b
  1387  001316  0101               	movlb	1	; () banked
  1388  001318  25C2               	addwf	memset@s& (0+255),w,b
  1389  00131A  0100               	movlb	0	; () banked
  1390  00131C  6FFC               	movwf	??_memset& (0+255),b
  1391  00131E  51FB               	movf	(memset@n+1)& (0+255),w,b
  1392  001320  0101               	movlb	1	; () banked
  1393  001322  21C3               	addwfc	(memset@s+1)& (0+255),w,b
  1394  001324  0100               	movlb	0	; () banked
  1395  001326  6FFD               	movwf	(??_memset+1)& (0+255),b
  1396  001328  0EFC               	movlw	252
  1397  00132A  25FC               	addwf	??_memset& (0+255),w,b
  1398  00132C  6ED9               	movwf	fsr2l,c
  1399  00132E  0EFF               	movlw	255
  1400  001330  21FD               	addwfc	(??_memset+1)& (0+255),w,b
  1401  001332  6EDA               	movwf	fsr2h,c
  1402  001334  C0F8  FFDF         	movff	memset@c,indf2
  1403                           
  1404                           ; BSR set to: 0
  1405  001338  51FB               	movf	(memset@n+1)& (0+255),w,b
  1406  00133A  E104               	bnz	l5281
  1407  00133C  0E09               	movlw	9
  1408  00133E  5DFA               	subwf	memset@n& (0+255),w,b
  1409  001340  A0D8               	btfss	status,0,c
  1410  001342  0012               	return	
  1411  001344                     l5281:
  1412                           
  1413                           ; BSR set to: 0
  1414  001344  C1C2  F0FC         	movff	memset@s,??_memset
  1415  001348  C1C3  F0FD         	movff	memset@s+1,??_memset+1
  1416  00134C  1FFC               	comf	??_memset& (0+255),f,b
  1417  00134E  1FFD               	comf	(??_memset+1)& (0+255),f,b
  1418  001350  4BFC               	infsnz	??_memset& (0+255),f,b
  1419  001352  2BFD               	incf	(??_memset+1)& (0+255),f,b
  1420  001354  0E03               	movlw	3
  1421  001356  15FC               	andwf	??_memset& (0+255),w,b
  1422  001358  0101               	movlb	1	; () banked
  1423  00135A  6FC0               	movwf	memset@k& (0+255),b
  1424  00135C  6BC1               	clrf	(memset@k+1)& (0+255),b
  1425  00135E  51C0               	movf	memset@k& (0+255),w,b
  1426  001360  27C2               	addwf	memset@s& (0+255),f,b
  1427  001362  51C1               	movf	(memset@k+1)& (0+255),w,b
  1428  001364  23C3               	addwfc	(memset@s+1)& (0+255),f,b
  1429  001366  51C0               	movf	memset@k& (0+255),w,b
  1430  001368  0100               	movlb	0	; () banked
  1431  00136A  5FFA               	subwf	memset@n& (0+255),f,b
  1432  00136C  0101               	movlb	1	; () banked
  1433  00136E  51C1               	movf	(memset@k+1)& (0+255),w,b
  1434  001370  0100               	movlb	0	; () banked
  1435  001372  5BFB               	subwfb	(memset@n+1)& (0+255),f,b
  1436  001374  0EFC               	movlw	252
  1437  001376  17FA               	andwf	memset@n& (0+255),f,b
  1438  001378  0EFF               	movlw	255
  1439  00137A  17FB               	andwf	(memset@n+1)& (0+255),f,b
  1440  00137C  D00C               	goto	l5289
  1441  00137E                     l5283:
  1442                           
  1443                           ; BSR set to: 0
  1444  00137E  C1C2  FFD9         	movff	memset@s,fsr2l
  1445  001382  C1C3  FFDA         	movff	memset@s+1,fsr2h
  1446  001386  C0F8  FFDF         	movff	memset@c,indf2
  1447                           
  1448                           ; BSR set to: 0
  1449  00138A  07FA               	decf	memset@n& (0+255),f,b
  1450  00138C  A0D8               	btfss	status,0,c
  1451  00138E  07FB               	decf	(memset@n+1)& (0+255),f,b
  1452                           
  1453                           ; BSR set to: 0
  1454  001390  0101               	movlb	1	; () banked
  1455  001392  4BC2               	infsnz	memset@s& (0+255),f,b
  1456  001394  2BC3               	incf	(memset@s+1)& (0+255),f,b
  1457  001396                     l5289:
  1458  001396  0100               	movlb	0	; () banked
  1459  001398  51FA               	movf	memset@n& (0+255),w,b
  1460  00139A  11FB               	iorwf	(memset@n+1)& (0+255),w,b
  1461  00139C  B4D8               	btfsc	status,2,c
  1462  00139E  0012               	return	
  1463  0013A0  D7EE               	goto	l5283
  1464  0013A2                     __end_of_memset:
  1465                           	opt callstack 0
  1466                           
  1467 ;; *************** function _USBDeviceAttach *****************
  1468 ;; Defined at:
  1469 ;;		line 1356 in file "../../../../../../framework/usb/src/usb_device.c"
  1470 ;; Parameters:    Size  Location     Type
  1471 ;;		None
  1472 ;; Auto vars:     Size  Location     Type
  1473 ;;		None
  1474 ;; Return value:  Size  Location     Type
  1475 ;;                  1    wreg      void 
  1476 ;; Registers used:
  1477 ;;		wreg, status,2
  1478 ;; Tracked objects:
  1479 ;;		On entry : 0/0
  1480 ;;		On exit  : 0/0
  1481 ;;		Unchanged: 0/0
  1482 ;; Data sizes:     COMRAM   BANK0   BANK1   BANK2   BANK3   BANK4   BANK5   BANK6   BANK7   BANK8   BANK9  BANK10  BANK1
      +1  BANK12  BANK13  BANK14
  1483 ;;      Params:         0       0       0       0       0       0       0       0       0       0       0       0       
      +0       0       0       0
  1484 ;;      Locals:         0       0       0       0       0       0       0       0       0       0       0       0       
      +0       0       0       0
  1485 ;;      Temps:          0       0       0       0       0       0       0       0       0       0       0       0       
      +0       0       0       0
  1486 ;;      Totals:         0       0       0       0       0       0       0       0       0       0       0       0       
      +0       0       0       0
  1487 ;;Total ram usage:        0 bytes
  1488 ;; Hardware stack levels used:    1
  1489 ;; Hardware stack levels required when called:   10
  1490 ;; This function calls:
  1491 ;;		Nothing
  1492 ;; This function is called by:
  1493 ;;		_main
  1494 ;; This function uses a non-reentrant model
  1495 ;;
  1496                           
  1497                           	psect	text3
  1498  002CE8                     __ptext3:
  1499                           	opt callstack 0
  1500  002CE8                     _USBDeviceAttach:
  1501                           	opt callstack 20
  1502                           
  1503                           ;../../../../../../framework/usb/src/usb_device.c: 1360:     {;../../../../../../framewo
      +                          rk/usb/src/usb_device.c: 1361:         if(1 == 1)
  1504                           
  1505                           ; BSR set to: 0
  1506                           ;incstack = 0
  1507  002CE8  5045               	movf	_USBDeviceState,w,c	;volatile
  1508  002CEA  A4D8               	btfss	status,2,c
  1509  002CEC  0012               	return	
  1510                           
  1511                           ;../../../../../../framework/usb/src/usb_device.c: 1362:         {;../../../../../../fra
      +                          mework/usb/src/usb_device.c: 1364:             UCON = 0;
  1512  002CEE  0E00               	movlw	0
  1513  002CF0  6E65               	movwf	3941,c	;volatile
  1514                           
  1515                           ;../../../../../../framework/usb/src/usb_device.c: 1367:             UIE = 0;
  1516  002CF2  0E00               	movlw	0
  1517  002CF4  010F               	movlb	15	; () banked
  1518  002CF6  6F36               	movwf	54,b	;volatile
  1519                           
  1520                           ;../../../../../../framework/usb/src/usb_device.c: 1371:             { UCFG = 0x10 | 0x0
      +                          0 | 0x04 | 0x02; UEIE = 0x9F; UIE = 0x39 | 0x40 | 0x02; };
  1521  002CF8  0E16               	movlw	22
  1522  002CFA  6F39               	movwf	57,b	;volatile
  1523  002CFC  0E9F               	movlw	159
  1524  002CFE  6F37               	movwf	55,b	;volatile
  1525  002D00  0E7B               	movlw	123
  1526  002D02  6F36               	movwf	54,b	;volatile
  1527                           
  1528                           ; BSR set to: 15
  1529                           ;../../../../../../framework/usb/src/usb_device.c: 1373:             {RCONbits.IPEN = 1;
      +                          IPR2bits.USBIP = 1;PIE2bits.USBIE = 1;INTCONbits.GIEH = 1;};
  1530  002D04  8ED0               	bsf	4048,7,c	;volatile
  1531                           
  1532                           ; BSR set to: 15
  1533  002D06  88A2               	bsf	4002,4,c	;volatile
  1534                           
  1535                           ; BSR set to: 15
  1536  002D08  88A0               	bsf	4000,4,c	;volatile
  1537                           
  1538                           ; BSR set to: 15
  1539  002D0A  8EF2               	bsf	4082,7,c	;volatile
  1540                           
  1541                           ;../../../../../../framework/usb/src/usb_device.c: 1376:             while(!UCONbits.USB
      +                          EN){UCONbits.USBEN = 1;}
  1542  002D0C  D001               	goto	l264
  1543  002D0E                     l265:
  1544  002D0E  8665               	bsf	3941,3,c	;volatile
  1545  002D10                     l264:
  1546  002D10  A665               	btfss	3941,3,c	;volatile
  1547  002D12  D7FD               	goto	l265
  1548                           
  1549                           ;../../../../../../framework/usb/src/usb_device.c: 1379:             USBDeviceState = AT
      +                          TACHED_STATE;
  1550  002D14  0E01               	movlw	1
  1551  002D16  6E45               	movwf	_USBDeviceState,c	;volatile
  1552  002D18  0012               	return		;funcret
  1553  002D1A                     __end_of_USBDeviceAttach:
  1554                           	opt callstack 0
  1555                           
  1556 ;; *************** function _SYSTEM_Initialize *****************
  1557 ;; Defined at:
  1558 ;;		line 60 in file "system.c"
  1559 ;; Parameters:    Size  Location     Type
  1560 ;;  state           1    wreg     enum E5844
  1561 ;; Auto vars:     Size  Location     Type
  1562 ;;  state           1    9[BANK0 ] enum E5844
  1563 ;;  pll_startup_    2    7[BANK0 ] unsigned int 
  1564 ;;  pll_startup_    2    5[BANK0 ] unsigned int 
  1565 ;; Return value:  Size  Location     Type
  1566 ;;                  1    wreg      void 
  1567 ;; Registers used:
  1568 ;;		wreg, status,2, status,0, cstack
  1569 ;; Tracked objects:
  1570 ;;		On entry : 0/0
  1571 ;;		On exit  : 0/0
  1572 ;;		Unchanged: 0/0
  1573 ;; Data sizes:     COMRAM   BANK0   BANK1   BANK2   BANK3   BANK4   BANK5   BANK6   BANK7   BANK8   BANK9  BANK10  BANK1
      +1  BANK12  BANK13  BANK14
  1574 ;;      Params:         0       0       0       0       0       0       0       0       0       0       0       0       
      +0       0       0       0
  1575 ;;      Locals:         0       5       0       0       0       0       0       0       0       0       0       0       
      +0       0       0       0
  1576 ;;      Temps:          0       2       0       0       0       0       0       0       0       0       0       0       
      +0       0       0       0
  1577 ;;      Totals:         0       7       0       0       0       0       0       0       0       0       0       0       
      +0       0       0       0
  1578 ;;Total ram usage:        7 bytes
  1579 ;; Hardware stack levels used:    1
  1580 ;; Hardware stack levels required when called:   11
  1581 ;; This function calls:
  1582 ;;		_BUTTON_Enable
  1583 ;;		_LED_Enable
  1584 ;; This function is called by:
  1585 ;;		_main
  1586 ;; This function uses a non-reentrant model
  1587 ;;
  1588                           
  1589                           	psect	text4
  1590  00294C                     __ptext4:
  1591                           	opt callstack 0
  1592  00294C                     _SYSTEM_Initialize:
  1593                           	opt callstack 19
  1594                           
  1595                           ;incstack = 0
  1596                           ;SYSTEM_Initialize@state stored from wreg
  1597  00294C  0100               	movlb	0	; () banked
  1598  00294E  6FFF               	movwf	SYSTEM_Initialize@state& (0+255),b
  1599                           
  1600                           ;system.c: 60: void SYSTEM_Initialize( SYSTEM_STATE state );system.c: 61: {;system.c: 62
      +                          :     switch(state)
  1601  002950  D023               	goto	l5529
  1602  002952                     l5515:
  1603                           
  1604                           ; BSR set to: 0
  1605                           ;system.c: 71:              {;system.c: 72:                  unsigned int pll_startup_co
      +                          unter = 600;
  1606  002952  0E02               	movlw	2
  1607  002954  6FFC               	movwf	(SYSTEM_Initialize@pll_startup_counter+1)& (0+255),b
  1608  002956  0E58               	movlw	88
  1609  002958  6FFB               	movwf	SYSTEM_Initialize@pll_startup_counter& (0+255),b
  1610                           
  1611                           ; BSR set to: 0
  1612                           ;system.c: 73:                  OSCTUNEbits.PLLEN = 1;
  1613  00295A  8C9B               	bsf	3995,6,c	;volatile
  1614  00295C                     l5519:
  1615                           
  1616                           ; BSR set to: 0
  1617  00295C  07FB               	decf	SYSTEM_Initialize@pll_startup_counter& (0+255),f,b
  1618  00295E  A0D8               	btfss	status,0,c
  1619  002960  07FC               	decf	(SYSTEM_Initialize@pll_startup_counter+1)& (0+255),f,b
  1620  002962  29FB               	incf	SYSTEM_Initialize@pll_startup_counter& (0+255),w,b
  1621  002964  E1FB               	bnz	l5519
  1622  002966  29FC               	incf	(SYSTEM_Initialize@pll_startup_counter+1)& (0+255),w,b
  1623  002968  A4D8               	btfss	status,2,c
  1624  00296A  D7F8               	goto	l5519
  1625                           
  1626                           ; BSR set to: 0
  1627                           ;system.c: 75:              };system.c: 78:             LED_Enable(LED_D1);
  1628  00296C  0E01               	movlw	1
  1629  00296E  EC40  F016         	call	_LED_Enable
  1630                           
  1631                           ;system.c: 79:             BUTTON_Enable(BUTTON_S2);
  1632  002972  0E01               	movlw	1
  1633  002974  ECD5  F016         	call	_BUTTON_Enable
  1634                           
  1635                           ;system.c: 80:             break;
  1636  002978  0012               	return	
  1637  00297A                     l5523:
  1638                           
  1639                           ; BSR set to: 0
  1640                           ;system.c: 94:             OSCCON = 0x70;
  1641  00297A  0E70               	movlw	112
  1642  00297C  6ED3               	movwf	4051,c	;volatile
  1643                           
  1644                           ;system.c: 100:             {;system.c: 101:                 unsigned int pll_startup_co
      +                          unter = 800;
  1645  00297E  0E03               	movlw	3
  1646  002980  6FFE               	movwf	(SYSTEM_Initialize@pll_startup_counter_2775+1)& (0+255),b
  1647  002982  0E20               	movlw	32
  1648  002984  6FFD               	movwf	SYSTEM_Initialize@pll_startup_counter_2775& (0+255),b
  1649  002986                     l5525:
  1650                           
  1651                           ; BSR set to: 0
  1652  002986  07FD               	decf	SYSTEM_Initialize@pll_startup_counter_2775& (0+255),f,b
  1653  002988  A0D8               	btfss	status,0,c
  1654  00298A  07FE               	decf	(SYSTEM_Initialize@pll_startup_counter_2775+1)& (0+255),f,b
  1655  00298C  29FD               	incf	SYSTEM_Initialize@pll_startup_counter_2775& (0+255),w,b
  1656  00298E  E1FB               	bnz	l5525
  1657  002990  29FE               	incf	(SYSTEM_Initialize@pll_startup_counter_2775+1)& (0+255),w,b
  1658  002992  B4D8               	btfsc	status,2,c
  1659  002994  0012               	return	
  1660  002996  D7F7               	goto	l5525
  1661  002998                     l5529:
  1662  002998  0100               	movlb	0	; () banked
  1663  00299A  51FF               	movf	SYSTEM_Initialize@state& (0+255),w,b
  1664  00299C  6FF9               	movwf	??_SYSTEM_Initialize& (0+255),b
  1665  00299E  6BFA               	clrf	(??_SYSTEM_Initialize+1)& (0+255),b
  1666                           
  1667                           ; Switch on 2 bytes has been partitioned into a top level switch of size 1, and 1 sub-sw
      +                          itches
  1668                           ; Switch size 1, requested type "simple"
  1669                           ; Number of cases is 1, Range of values is 0 to 0
  1670                           ; switch strategies available:
  1671                           ; Name         Instructions Cycles
  1672                           ; simple_byte            4     3 (average)
  1673                           ;	Chosen strategy is simple_byte
  1674  0029A0  51FA               	movf	(??_SYSTEM_Initialize+1)& (0+255),w,b
  1675  0029A2  0A00               	xorlw	0	; case 0
  1676  0029A4  A4D8               	btfss	status,2,c
  1677  0029A6  0012               	return	
  1678                           
  1679                           ; BSR set to: 0
  1680                           ; Switch size 1, requested type "simple"
  1681                           ; Number of cases is 3, Range of values is 0 to 2
  1682                           ; switch strategies available:
  1683                           ; Name         Instructions Cycles
  1684                           ; simple_byte           10     6 (average)
  1685                           ;	Chosen strategy is simple_byte
  1686  0029A8  51F9               	movf	??_SYSTEM_Initialize& (0+255),w,b
  1687  0029AA  0A00               	xorlw	0	; case 0
  1688  0029AC  B4D8               	btfsc	status,2,c
  1689  0029AE  D7D1               	goto	l5515
  1690  0029B0  0A01               	xorlw	1	; case 1
  1691  0029B2  B4D8               	btfsc	status,2,c
  1692  0029B4  0012               	return	
  1693  0029B6  0A03               	xorlw	3	; case 2
  1694  0029B8  A4D8               	btfss	status,2,c
  1695  0029BA  0012               	return	
  1696  0029BC  D7DE               	goto	l5523
  1697  0029BE                     __end_of_SYSTEM_Initialize:
  1698                           	opt callstack 0
  1699                           
  1700 ;; *************** function _LED_Enable *****************
  1701 ;; Defined at:
  1702 ;;		line 186 in file "../../../../../../bsp/pic18f46j50_pim/leds.c"
  1703 ;; Parameters:    Size  Location     Type
  1704 ;;  led             1    wreg     enum E2
  1705 ;; Auto vars:     Size  Location     Type
  1706 ;;  led             1    2[BANK0 ] enum E2
  1707 ;; Return value:  Size  Location     Type
  1708 ;;                  1    wreg      void 
  1709 ;; Registers used:
  1710 ;;		wreg, status,2, status,0
  1711 ;; Tracked objects:
  1712 ;;		On entry : 0/0
  1713 ;;		On exit  : 0/0
  1714 ;;		Unchanged: 0/0
  1715 ;; Data sizes:     COMRAM   BANK0   BANK1   BANK2   BANK3   BANK4   BANK5   BANK6   BANK7   BANK8   BANK9  BANK10  BANK1
      +1  BANK12  BANK13  BANK14
  1716 ;;      Params:         0       0       0       0       0       0       0       0       0       0       0       0       
      +0       0       0       0
  1717 ;;      Locals:         0       1       0       0       0       0       0       0       0       0       0       0       
      +0       0       0       0
  1718 ;;      Temps:          0       2       0       0       0       0       0       0       0       0       0       0       
      +0       0       0       0
  1719 ;;      Totals:         0       3       0       0       0       0       0       0       0       0       0       0       
      +0       0       0       0
  1720 ;;Total ram usage:        3 bytes
  1721 ;; Hardware stack levels used:    1
  1722 ;; Hardware stack levels required when called:   10
  1723 ;; This function calls:
  1724 ;;		Nothing
  1725 ;; This function is called by:
  1726 ;;		_SYSTEM_Initialize
  1727 ;; This function uses a non-reentrant model
  1728 ;;
  1729                           
  1730                           	psect	text5
  1731  002C80                     __ptext5:
  1732                           	opt callstack 0
  1733  002C80                     _LED_Enable:
  1734                           	opt callstack 19
  1735                           
  1736                           ;incstack = 0
  1737                           ;LED_Enable@led stored from wreg
  1738  002C80  0100               	movlb	0	; () banked
  1739  002C82  6FF8               	movwf	LED_Enable@led& (0+255),b
  1740                           
  1741                           ;../../../../../../bsp/pic18f46j50_pim/leds.c: 186: void LED_Enable(LED led);../../../..
      +                          /../../bsp/pic18f46j50_pim/leds.c: 187: {;../../../../../../bsp/pic18f46j50_pim/leds.c: 
      +                          188:     switch(led)
  1742  002C84  D004               	goto	l5251
  1743  002C86                     l60:
  1744                           
  1745                           ; BSR set to: 0
  1746                           ;../../../../../../bsp/pic18f46j50_pim/leds.c: 191:             TRISEbits.TRISE0 = 0;
  1747  002C86  9096               	bcf	3990,0,c	;volatile
  1748                           
  1749                           ;../../../../../../bsp/pic18f46j50_pim/leds.c: 192:             break;
  1750  002C88  0012               	return	
  1751  002C8A                     l62:
  1752                           
  1753                           ; BSR set to: 0
  1754                           ;../../../../../../bsp/pic18f46j50_pim/leds.c: 195:             TRISEbits.TRISE1 = 0;
  1755  002C8A  9296               	bcf	3990,1,c	;volatile
  1756                           
  1757                           ;../../../../../../bsp/pic18f46j50_pim/leds.c: 196:             break;
  1758  002C8C  0012               	return	
  1759  002C8E                     l5251:
  1760  002C8E  0100               	movlb	0	; () banked
  1761  002C90  51F8               	movf	LED_Enable@led& (0+255),w,b
  1762  002C92  6FF6               	movwf	??_LED_Enable& (0+255),b
  1763  002C94  6BF7               	clrf	(??_LED_Enable+1)& (0+255),b
  1764                           
  1765                           ; Switch on 2 bytes has been partitioned into a top level switch of size 1, and 1 sub-sw
      +                          itches
  1766                           ; Switch size 1, requested type "simple"
  1767                           ; Number of cases is 1, Range of values is 0 to 0
  1768                           ; switch strategies available:
  1769                           ; Name         Instructions Cycles
  1770                           ; simple_byte            4     3 (average)
  1771                           ;	Chosen strategy is simple_byte
  1772  002C96  51F7               	movf	(??_LED_Enable+1)& (0+255),w,b
  1773  002C98  0A00               	xorlw	0	; case 0
  1774  002C9A  A4D8               	btfss	status,2,c
  1775  002C9C  0012               	return	
  1776                           
  1777                           ; BSR set to: 0
  1778                           ; Switch size 1, requested type "simple"
  1779                           ; Number of cases is 3, Range of values is 0 to 2
  1780                           ; switch strategies available:
  1781                           ; Name         Instructions Cycles
  1782                           ; simple_byte           10     6 (average)
  1783                           ;	Chosen strategy is simple_byte
  1784  002C9E  51F6               	movf	??_LED_Enable& (0+255),w,b
  1785  002CA0  0A00               	xorlw	0	; case 0
  1786  002CA2  B4D8               	btfsc	status,2,c
  1787  002CA4  0012               	return	
  1788  002CA6  0A01               	xorlw	1	; case 1
  1789  002CA8  B4D8               	btfsc	status,2,c
  1790  002CAA  D7ED               	goto	l60
  1791  002CAC  0A03               	xorlw	3	; case 2
  1792  002CAE  A4D8               	btfss	status,2,c
  1793  002CB0  0012               	return	
  1794  002CB2  D7EB               	goto	l62
  1795  002CB4                     __end_of_LED_Enable:
  1796                           	opt callstack 0
  1797                           
  1798 ;; *************** function _BUTTON_Enable *****************
  1799 ;; Defined at:
  1800 ;;		line 88 in file "../../../../../../bsp/pic18f46j50_pim/buttons.c"
  1801 ;; Parameters:    Size  Location     Type
  1802 ;;  button          1    wreg     enum E5821
  1803 ;; Auto vars:     Size  Location     Type
  1804 ;;  button          1    2[BANK0 ] enum E5821
  1805 ;; Return value:  Size  Location     Type
  1806 ;;                  1    wreg      void 
  1807 ;; Registers used:
  1808 ;;		wreg, status,2, status,0
  1809 ;; Tracked objects:
  1810 ;;		On entry : 0/0
  1811 ;;		On exit  : 0/0
  1812 ;;		Unchanged: 0/0
  1813 ;; Data sizes:     COMRAM   BANK0   BANK1   BANK2   BANK3   BANK4   BANK5   BANK6   BANK7   BANK8   BANK9  BANK10  BANK1
      +1  BANK12  BANK13  BANK14
  1814 ;;      Params:         0       0       0       0       0       0       0       0       0       0       0       0       
      +0       0       0       0
  1815 ;;      Locals:         0       1       0       0       0       0       0       0       0       0       0       0       
      +0       0       0       0
  1816 ;;      Temps:          0       2       0       0       0       0       0       0       0       0       0       0       
      +0       0       0       0
  1817 ;;      Totals:         0       3       0       0       0       0       0       0       0       0       0       0       
      +0       0       0       0
  1818 ;;Total ram usage:        3 bytes
  1819 ;; Hardware stack levels used:    1
  1820 ;; Hardware stack levels required when called:   10
  1821 ;; This function calls:
  1822 ;;		Nothing
  1823 ;; This function is called by:
  1824 ;;		_SYSTEM_Initialize
  1825 ;; This function uses a non-reentrant model
  1826 ;;
  1827                           
  1828                           	psect	text6
  1829  002DAA                     __ptext6:
  1830                           	opt callstack 0
  1831  002DAA                     _BUTTON_Enable:
  1832                           	opt callstack 19
  1833                           
  1834                           ; BSR set to: 0
  1835                           ;incstack = 0
  1836                           ;BUTTON_Enable@button stored from wreg
  1837  002DAA  0100               	movlb	0	; () banked
  1838  002DAC  6FF8               	movwf	BUTTON_Enable@button& (0+255),b
  1839                           
  1840                           ;../../../../../../bsp/pic18f46j50_pim/buttons.c: 88: void BUTTON_Enable(BUTTON button);
      +                          ../../../../../../bsp/pic18f46j50_pim/buttons.c: 89: {;../../../../../../bsp/pic18f46j50
      +                          _pim/buttons.c: 90:     switch(button)
  1841  002DAE  D004               	goto	l5241
  1842  002DB0                     l17:
  1843                           
  1844                           ; BSR set to: 0
  1845                           ;../../../../../../bsp/pic18f46j50_pim/buttons.c: 93:             TRISBbits.TRISB2 = 1;
  1846  002DB0  8493               	bsf	3987,2,c	;volatile
  1847                           
  1848                           ;../../../../../../bsp/pic18f46j50_pim/buttons.c: 94:             ANCON1bits.PCFG8 = 1;
  1849  002DB2  010F               	movlb	15	; () banked
  1850  002DB4  8149               	bsf	73,0,b	;volatile
  1851                           
  1852                           ;../../../../../../bsp/pic18f46j50_pim/buttons.c: 95:             break;
  1853  002DB6  0012               	return	
  1854  002DB8                     l5241:
  1855  002DB8  0100               	movlb	0	; () banked
  1856  002DBA  51F8               	movf	BUTTON_Enable@button& (0+255),w,b
  1857  002DBC  6FF6               	movwf	??_BUTTON_Enable& (0+255),b
  1858  002DBE  6BF7               	clrf	(??_BUTTON_Enable+1)& (0+255),b
  1859                           
  1860                           ; Switch on 2 bytes has been partitioned into a top level switch of size 1, and 1 sub-sw
      +                          itches
  1861                           ; Switch size 1, requested type "simple"
  1862                           ; Number of cases is 1, Range of values is 0 to 0
  1863                           ; switch strategies available:
  1864                           ; Name         Instructions Cycles
  1865                           ; simple_byte            4     3 (average)
  1866                           ;	Chosen strategy is simple_byte
  1867  002DC0  51F7               	movf	(??_BUTTON_Enable+1)& (0+255),w,b
  1868  002DC2  0A00               	xorlw	0	; case 0
  1869  002DC4  A4D8               	btfss	status,2,c
  1870  002DC6  0012               	return	
  1871                           
  1872                           ; BSR set to: 0
  1873                           ; Switch size 1, requested type "simple"
  1874                           ; Number of cases is 2, Range of values is 0 to 1
  1875                           ; switch strategies available:
  1876                           ; Name         Instructions Cycles
  1877                           ; simple_byte            7     4 (average)
  1878                           ;	Chosen strategy is simple_byte
  1879  002DC8  51F6               	movf	??_BUTTON_Enable& (0+255),w,b
  1880  002DCA  0A00               	xorlw	0	; case 0
  1881  002DCC  B4D8               	btfsc	status,2,c
  1882  002DCE  0012               	return	
  1883  002DD0  0A01               	xorlw	1	; case 1
  1884  002DD2  A4D8               	btfss	status,2,c
  1885  002DD4  0012               	return	
  1886  002DD6  D7EC               	goto	l17
  1887  002DD8                     __end_of_BUTTON_Enable:
  1888                           	opt callstack 0
  1889                           
  1890 ;; *************** function _APP_DeviceCDCBasicDemoTasks *****************
  1891 ;; Defined at:
  1892 ;;		line 76 in file "../demo_src/app_device_cdc_basic.c"
  1893 ;; Parameters:    Size  Location     Type
  1894 ;;		None
  1895 ;; Auto vars:     Size  Location     Type
  1896 ;;  i               1    9[BANK1 ] unsigned char 
  1897 ;;  numBytesRead    1    8[BANK1 ] unsigned char 
  1898 ;; Return value:  Size  Location     Type
  1899 ;;                  1    wreg      void 
  1900 ;; Registers used:
  1901 ;;		wreg, fsr1l, fsr1h, fsr2l, fsr2h, status,2, status,0, prodl, prodh, cstack
  1902 ;; Tracked objects:
  1903 ;;		On entry : 0/0
  1904 ;;		On exit  : 0/0
  1905 ;;		Unchanged: 0/0
  1906 ;; Data sizes:     COMRAM   BANK0   BANK1   BANK2   BANK3   BANK4   BANK5   BANK6   BANK7   BANK8   BANK9  BANK10  BANK1
      +1  BANK12  BANK13  BANK14
  1907 ;;      Params:         0       0       0       0       0       0       0       0       0       0       0       0       
      +0       0       0       0
  1908 ;;      Locals:         0       0       2       0       0       0       0       0       0       0       0       0       
      +0       0       0       0
  1909 ;;      Temps:          0       0       2       0       0       0       0       0       0       0       0       0       
      +0       0       0       0
  1910 ;;      Totals:         0       0       4       0       0       0       0       0       0       0       0       0       
      +0       0       0       0
  1911 ;;Total ram usage:        4 bytes
  1912 ;; Hardware stack levels used:    1
  1913 ;; Hardware stack levels required when called:   12
  1914 ;; This function calls:
  1915 ;;		_BUTTON_IsPressed
  1916 ;;		_CDCTxService
  1917 ;;		_getsUSBUSART
  1918 ;;		_putUSBUSART
  1919 ;;		_putrsUSBUSART
  1920 ;; This function is called by:
  1921 ;;		_main
  1922 ;; This function uses a non-reentrant model
  1923 ;;
  1924                           
  1925                           	psect	text7
  1926  001DE6                     __ptext7:
  1927                           	opt callstack 0
  1928  001DE6                     _APP_DeviceCDCBasicDemoTasks:
  1929                           	opt callstack 18
  1930                           
  1931                           ;../demo_src/app_device_cdc_basic.c: 81:     if( USBDeviceState < CONFIGURED_STATE )
  1932                           
  1933                           ;incstack = 0
  1934  001DE6  0E20               	movlw	32
  1935  001DE8  6045               	cpfslt	_USBDeviceState,c	;volatile
  1936  001DEA  D001               	goto	l668
  1937  001DEC  0012               	return	
  1938  001DEE                     l668:
  1939                           
  1940                           ;../demo_src/app_device_cdc_basic.c: 90:     if( UCONbits.SUSPND== 1 )
  1941  001DEE  B265               	btfsc	3941,1,c	;volatile
  1942  001DF0  0012               	return	
  1943                           
  1944                           ;../demo_src/app_device_cdc_basic.c: 98:     if(BUTTON_IsPressed(BUTTON_S2) == 1)
  1945  001DF2  0E01               	movlw	1
  1946  001DF4  EC25  F016         	call	_BUTTON_IsPressed
  1947  001DF8  06E8               	decf	wreg,f,c
  1948  001DFA  A4D8               	btfss	status,2,c
  1949  001DFC  D00F               	goto	l5551
  1950                           
  1951                           ;../demo_src/app_device_cdc_basic.c: 99:     {;../demo_src/app_device_cdc_basic.c: 103: 
      +                                  if(buttonPressed == 0)
  1952  001DFE  0100               	movlb	0	; () banked
  1953  001E00  5198               	movf	_buttonPressed& (0+255),w,b
  1954  001E02  A4D8               	btfss	status,2,c
  1955  001E04  D00E               	goto	l674
  1956                           
  1957                           ; BSR set to: 0
  1958                           ;../demo_src/app_device_cdc_basic.c: 104:         {;../demo_src/app_device_cdc_basic.c: 
      +                          107:             if((cdc_trf_state == 0) == 1)
  1959  001E06  5037               	movf	_cdc_trf_state,w,c
  1960  001E08  A4D8               	btfss	status,2,c
  1961  001E0A  D00B               	goto	l674
  1962                           
  1963                           ; BSR set to: 0
  1964                           ;../demo_src/app_device_cdc_basic.c: 108:             {;../demo_src/app_device_cdc_basic
      +                          .c: 109:                 putrsUSBUSART(buttonMessage);
  1965  001E0C  0EE4               	movlw	low _buttonMessage
  1966  001E0E  6FF6               	movwf	putrsUSBUSART@data& (0+255),b
  1967  001E10  0E00               	movlw	high _buttonMessage
  1968  001E12  6FF7               	movwf	(putrsUSBUSART@data+1)& (0+255),b
  1969  001E14  EC9F  F015         	call	_putrsUSBUSART	;wreg free
  1970                           
  1971                           ;../demo_src/app_device_cdc_basic.c: 110:                 buttonPressed = 1;
  1972  001E18  0E01               	movlw	1
  1973  001E1A  D001               	goto	L1
  1974  001E1C                     l5551:
  1975                           
  1976                           ;../demo_src/app_device_cdc_basic.c: 115:     {;../demo_src/app_device_cdc_basic.c: 119:
      +                                   buttonPressed = 0;
  1977  001E1C  0E00               	movlw	0
  1978  001E1E                     L1:
  1979  001E1E  0100               	movlb	0	; () banked
  1980  001E20  6F98               	movwf	_buttonPressed& (0+255),b
  1981  001E22                     l674:
  1982                           
  1983                           ; BSR set to: 0
  1984                           ;../demo_src/app_device_cdc_basic.c: 125:     if( (cdc_trf_state == 0) == 1)
  1985  001E22  5037               	movf	_cdc_trf_state,w,c
  1986  001E24  A4D8               	btfss	status,2,c
  1987  001E26  D054               	goto	l5573
  1988                           
  1989                           ; BSR set to: 0
  1990                           ;../demo_src/app_device_cdc_basic.c: 126:     {;../demo_src/app_device_cdc_basic.c: 127:
      +                                   uint8_t i;;../demo_src/app_device_cdc_basic.c: 128:         uint8_t numBytesRea
      +                          d;;../demo_src/app_device_cdc_basic.c: 130:         numBytesRead = getsUSBUSART(readBuff
      +                          er, sizeof(readBuffer));
  1991  001E28  0E40               	movlw	low _readBuffer
  1992  001E2A  0101               	movlb	1	; () banked
  1993  001E2C  6FC3               	movwf	getsUSBUSART@buffer& (0+255),b
  1994  001E2E  0E01               	movlw	high _readBuffer
  1995  001E30  6FC4               	movwf	(getsUSBUSART@buffer+1)& (0+255),b
  1996  001E32  0E40               	movlw	64
  1997  001E34  6FC5               	movwf	getsUSBUSART@len& (0+255),b
  1998  001E36  EC9F  F012         	call	_getsUSBUSART	;wreg free
  1999  001E3A  0101               	movlb	1	; () banked
  2000  001E3C  6FC8               	movwf	APP_DeviceCDCBasicDemoTasks@numBytesRead& (0+255),b
  2001                           
  2002                           ; BSR set to: 1
  2003                           ;../demo_src/app_device_cdc_basic.c: 133:         for(i=0; i<numBytesRead; i++)
  2004  001E3E  0E00               	movlw	0
  2005  001E40  6FC9               	movwf	APP_DeviceCDCBasicDemoTasks@i& (0+255),b
  2006  001E42  D036               	goto	l5567
  2007  001E44                     l5557:
  2008                           
  2009                           ; BSR set to: 1
  2010                           ;../demo_src/app_device_cdc_basic.c: 142:                     writeBuffer[i] = readBuffe
      +                          r[i];
  2011  001E44  0E40               	movlw	low _readBuffer
  2012  001E46  25C9               	addwf	APP_DeviceCDCBasicDemoTasks@i& (0+255),w,b
  2013  001E48  6ED9               	movwf	fsr2l,c
  2014  001E4A  6ADA               	clrf	fsr2h,c
  2015  001E4C  0E01               	movlw	high _readBuffer
  2016  001E4E  22DA               	addwfc	fsr2h,f,c
  2017  001E50  0E00               	movlw	low _writeBuffer
  2018  001E52  25C9               	addwf	APP_DeviceCDCBasicDemoTasks@i& (0+255),w,b
  2019  001E54  6EE1               	movwf	fsr1l,c
  2020  001E56  6AE2               	clrf	fsr1h,c
  2021  001E58  0E01               	movlw	high _writeBuffer
  2022  001E5A  22E2               	addwfc	fsr1h,f,c
  2023  001E5C  CFDF FFE7          	movff	indf2,indf1
  2024                           
  2025                           ;../demo_src/app_device_cdc_basic.c: 143:                     break;
  2026  001E60  D026               	goto	l5565
  2027  001E62                     l5559:
  2028                           
  2029                           ; BSR set to: 1
  2030                           ;../demo_src/app_device_cdc_basic.c: 151:                     writeBuffer[i] = readBuffe
      +                          r[i] + 1;
  2031  001E62  0E00               	movlw	low _writeBuffer
  2032  001E64  25C9               	addwf	APP_DeviceCDCBasicDemoTasks@i& (0+255),w,b
  2033  001E66  6ED9               	movwf	fsr2l,c
  2034  001E68  6ADA               	clrf	fsr2h,c
  2035  001E6A  0E01               	movlw	high _writeBuffer
  2036  001E6C  22DA               	addwfc	fsr2h,f,c
  2037  001E6E  0E40               	movlw	low _readBuffer
  2038  001E70  25C9               	addwf	APP_DeviceCDCBasicDemoTasks@i& (0+255),w,b
  2039  001E72  6EE1               	movwf	fsr1l,c
  2040  001E74  6AE2               	clrf	fsr1h,c
  2041  001E76  0E01               	movlw	high _readBuffer
  2042  001E78  22E2               	addwfc	fsr1h,f,c
  2043  001E7A  50E7               	movf	indf1,w,c
  2044  001E7C  6FC6               	movwf	??_APP_DeviceCDCBasicDemoTasks& (0+255),b
  2045  001E7E  29C6               	incf	??_APP_DeviceCDCBasicDemoTasks& (0+255),w,b
  2046  001E80  6EDF               	movwf	indf2,c
  2047                           
  2048                           ;../demo_src/app_device_cdc_basic.c: 152:                     break;
  2049  001E82  D015               	goto	l5565
  2050  001E84                     l5563:
  2051                           
  2052                           ; BSR set to: 1
  2053  001E84  0E40               	movlw	low _readBuffer
  2054  001E86  25C9               	addwf	APP_DeviceCDCBasicDemoTasks@i& (0+255),w,b
  2055  001E88  6ED9               	movwf	fsr2l,c
  2056  001E8A  6ADA               	clrf	fsr2h,c
  2057  001E8C  0E01               	movlw	high _readBuffer
  2058  001E8E  22DA               	addwfc	fsr2h,f,c
  2059  001E90  50DF               	movf	indf2,w,c
  2060  001E92  6FC6               	movwf	??_APP_DeviceCDCBasicDemoTasks& (0+255),b
  2061  001E94  6BC7               	clrf	(??_APP_DeviceCDCBasicDemoTasks+1)& (0+255),b
  2062                           
  2063                           ; Switch on 2 bytes has been partitioned into a top level switch of size 1, and 1 sub-sw
      +                          itches
  2064                           ; Switch size 1, requested type "simple"
  2065                           ; Number of cases is 1, Range of values is 0 to 0
  2066                           ; switch strategies available:
  2067                           ; Name         Instructions Cycles
  2068                           ; simple_byte            4     3 (average)
  2069                           ;	Chosen strategy is simple_byte
  2070  001E96  51C7               	movf	(??_APP_DeviceCDCBasicDemoTasks+1)& (0+255),w,b
  2071  001E98  0A00               	xorlw	0	; case 0
  2072  001E9A  A4D8               	btfss	status,2,c
  2073  001E9C  D7E2               	goto	l5559
  2074                           
  2075                           ; BSR set to: 1
  2076                           ; Switch size 1, requested type "simple"
  2077                           ; Number of cases is 2, Range of values is 10 to 13
  2078                           ; switch strategies available:
  2079                           ; Name         Instructions Cycles
  2080                           ; simple_byte            7     4 (average)
  2081                           ;	Chosen strategy is simple_byte
  2082  001E9E  51C6               	movf	??_APP_DeviceCDCBasicDemoTasks& (0+255),w,b
  2083  001EA0  0A0A               	xorlw	10	; case 10
  2084  001EA2  B4D8               	btfsc	status,2,c
  2085  001EA4  D7CF               	goto	l5557
  2086  001EA6  0A07               	xorlw	7	; case 13
  2087  001EA8  B4D8               	btfsc	status,2,c
  2088  001EAA  D7CC               	goto	l5557
  2089  001EAC  D7DA               	goto	l5559
  2090  001EAE                     l5565:
  2091                           
  2092                           ; BSR set to: 1
  2093                           ;../demo_src/app_device_cdc_basic.c: 154:         }
  2094  001EAE  2BC9               	incf	APP_DeviceCDCBasicDemoTasks@i& (0+255),f,b
  2095  001EB0                     l5567:
  2096                           
  2097                           ; BSR set to: 1
  2098  001EB0  51C8               	movf	APP_DeviceCDCBasicDemoTasks@numBytesRead& (0+255),w,b
  2099  001EB2  5DC9               	subwf	APP_DeviceCDCBasicDemoTasks@i& (0+255),w,b
  2100  001EB4  A0D8               	btfss	status,0,c
  2101  001EB6  D7E6               	goto	l5563
  2102                           
  2103                           ; BSR set to: 1
  2104                           ;../demo_src/app_device_cdc_basic.c: 156:         if(numBytesRead > 0)
  2105  001EB8  51C8               	movf	APP_DeviceCDCBasicDemoTasks@numBytesRead& (0+255),w,b
  2106  001EBA  B4D8               	btfsc	status,2,c
  2107  001EBC  D009               	goto	l5573
  2108                           
  2109                           ; BSR set to: 1
  2110                           ;../demo_src/app_device_cdc_basic.c: 157:         {;../demo_src/app_device_cdc_basic.c: 
      +                          161:             putUSBUSART(writeBuffer,numBytesRead);
  2111  001EBE  0E00               	movlw	low _writeBuffer
  2112  001EC0  0100               	movlb	0	; () banked
  2113  001EC2  6FF6               	movwf	putUSBUSART@data& (0+255),b
  2114  001EC4  0E01               	movlw	high _writeBuffer
  2115  001EC6  6FF7               	movwf	(putUSBUSART@data+1)& (0+255),b
  2116  001EC8  C1C8  F0F8         	movff	APP_DeviceCDCBasicDemoTasks@numBytesRead,putUSBUSART@length
  2117  001ECC  EC2A  F017         	call	_putUSBUSART	;wreg free
  2118  001ED0                     l5573:
  2119                           
  2120                           ;../demo_src/app_device_cdc_basic.c: 165:     CDCTxService();
  2121  001ED0  EC65  F00D         	call	_CDCTxService	;wreg free
  2122  001ED4  0012               	return		;funcret
  2123  001ED6                     __end_of_APP_DeviceCDCBasicDemoTasks:
  2124                           	opt callstack 0
  2125                           
  2126 ;; *************** function _putrsUSBUSART *****************
  2127 ;; Defined at:
  2128 ;;		line 727 in file "../../../../../../framework/usb/src/usb_device_cdc.c"
  2129 ;; Parameters:    Size  Location     Type
  2130 ;;  data            2    0[BANK0 ] PTR const unsigned char 
  2131 ;;		 -> buttonMessage(18), 
  2132 ;; Auto vars:     Size  Location     Type
  2133 ;;  pData           2    2[BANK0 ] PTR const unsigned char 
  2134 ;;		 -> buttonMessage(18), 
  2135 ;;  len             1    4[BANK0 ] unsigned char 
  2136 ;; Return value:  Size  Location     Type
  2137 ;;                  1    wreg      void 
  2138 ;; Registers used:
  2139 ;;		wreg, fsr2l, fsr2h, status,2, status,0
  2140 ;; Tracked objects:
  2141 ;;		On entry : 0/0
  2142 ;;		On exit  : 0/0
  2143 ;;		Unchanged: 0/0
  2144 ;; Data sizes:     COMRAM   BANK0   BANK1   BANK2   BANK3   BANK4   BANK5   BANK6   BANK7   BANK8   BANK9  BANK10  BANK1
      +1  BANK12  BANK13  BANK14
  2145 ;;      Params:         0       2       0       0       0       0       0       0       0       0       0       0       
      +0       0       0       0
  2146 ;;      Locals:         0       3       0       0       0       0       0       0       0       0       0       0       
      +0       0       0       0
  2147 ;;      Temps:          0       0       0       0       0       0       0       0       0       0       0       0       
      +0       0       0       0
  2148 ;;      Totals:         0       5       0       0       0       0       0       0       0       0       0       0       
      +0       0       0       0
  2149 ;;Total ram usage:        5 bytes
  2150 ;; Hardware stack levels used:    1
  2151 ;; Hardware stack levels required when called:   10
  2152 ;; This function calls:
  2153 ;;		Nothing
  2154 ;; This function is called by:
  2155 ;;		_APP_DeviceCDCBasicDemoTasks
  2156 ;; This function uses a non-reentrant model
  2157 ;;
  2158                           
  2159                           	psect	text8
  2160  002B3E                     __ptext8:
  2161                           	opt callstack 0
  2162  002B3E                     _putrsUSBUSART:
  2163                           	opt callstack 19
  2164                           
  2165                           ;../../../../../../framework/usb/src/usb_device_cdc.c: 727: void putrsUSBUSART(const cha
      +                          r *data);../../../../../../framework/usb/src/usb_device_cdc.c: 728: {;../../../../../../
      +                          framework/usb/src/usb_device_cdc.c: 729:     uint8_t len;;../../../../../../framework/us
      +                          b/src/usb_device_cdc.c: 730:     const char *pData;;../../../../../../framework/usb/src/
      +                          usb_device_cdc.c: 755:     {PIE2bits.USBIE = 0;};
  2166                           
  2167                           ;incstack = 0
  2168  002B3E  98A0               	bcf	4000,4,c	;volatile
  2169                           
  2170                           ;../../../../../../framework/usb/src/usb_device_cdc.c: 756:     if(cdc_trf_state != 0)
  2171  002B40  5037               	movf	_cdc_trf_state,w,c
  2172  002B42  B4D8               	btfsc	status,2,c
  2173  002B44  D002               	goto	l5335
  2174                           
  2175                           ;../../../../../../framework/usb/src/usb_device_cdc.c: 757:     {;../../../../../../fram
      +                          ework/usb/src/usb_device_cdc.c: 758:         {PIE2bits.USBIE = 1;};
  2176  002B46  88A0               	bsf	4000,4,c	;volatile
  2177                           
  2178                           ;../../../../../../framework/usb/src/usb_device_cdc.c: 759:         return;
  2179  002B48  0012               	return	
  2180  002B4A                     l5335:
  2181                           
  2182                           ;../../../../../../framework/usb/src/usb_device_cdc.c: 766:     len = 0;
  2183  002B4A  0E00               	movlw	0
  2184  002B4C  0100               	movlb	0	; () banked
  2185  002B4E  6FFA               	movwf	putrsUSBUSART@len& (0+255),b
  2186                           
  2187                           ; BSR set to: 0
  2188                           ;../../../../../../framework/usb/src/usb_device_cdc.c: 767:     pData = data;
  2189  002B50  C0F6  F0F8         	movff	putrsUSBUSART@data,putrsUSBUSART@pData
  2190  002B54  C0F7  F0F9         	movff	putrsUSBUSART@data+1,putrsUSBUSART@pData+1
  2191  002B58                     l5339:
  2192                           
  2193                           ; BSR set to: 0
  2194                           ;../../../../../../framework/usb/src/usb_device_cdc.c: 769:     {;../../../../../../fram
      +                          ework/usb/src/usb_device_cdc.c: 770:         len++;
  2195  002B58  2BFA               	incf	putrsUSBUSART@len& (0+255),f,b
  2196                           
  2197                           ; BSR set to: 0
  2198                           ;../../../../../../framework/usb/src/usb_device_cdc.c: 771:         if(len == 255) break
      +                          ;
  2199  002B5A  29FA               	incf	putrsUSBUSART@len& (0+255),w,b
  2200  002B5C  B4D8               	btfsc	status,2,c
  2201  002B5E  D009               	goto	u3730
  2202                           
  2203                           ; BSR set to: 0
  2204                           ;../../../../../../framework/usb/src/usb_device_cdc.c: 772:     }while(*pData++);
  2205  002B60  C0F8  FFD9         	movff	putrsUSBUSART@pData,fsr2l
  2206  002B64  C0F9  FFDA         	movff	putrsUSBUSART@pData+1,fsr2h
  2207  002B68  4BF8               	infsnz	putrsUSBUSART@pData& (0+255),f,b
  2208  002B6A  2BF9               	incf	(putrsUSBUSART@pData+1)& (0+255),f,b
  2209  002B6C  50DF               	movf	indf2,w,c
  2210  002B6E  A4D8               	btfss	status,2,c
  2211  002B70  D7F3               	goto	l5339
  2212  002B72                     u3730:
  2213                           
  2214                           ; BSR set to: 0
  2215                           ;../../../../../../framework/usb/src/usb_device_cdc.c: 781:     { pCDCSrc.bRom = (const 
      +                          uint8_t*)data; cdc_tx_len = len; cdc_mem_type = 0x00; cdc_trf_state = 1; };
  2216  002B72  C0F6  F08B         	movff	putrsUSBUSART@data,_pCDCSrc
  2217  002B76  C0F7  F08C         	movff	putrsUSBUSART@data+1,_pCDCSrc+1
  2218                           
  2219                           ; BSR set to: 0
  2220  002B7A  C0FA  F09A         	movff	putrsUSBUSART@len,_cdc_tx_len
  2221                           
  2222                           ; BSR set to: 0
  2223  002B7E  0E00               	movlw	0
  2224  002B80  6F99               	movwf	_cdc_mem_type& (0+255),b
  2225                           
  2226                           ; BSR set to: 0
  2227  002B82  0E01               	movlw	1
  2228  002B84  6E37               	movwf	_cdc_trf_state,c
  2229                           
  2230                           ; BSR set to: 0
  2231                           ;../../../../../../framework/usb/src/usb_device_cdc.c: 782:     {PIE2bits.USBIE = 1;};
  2232  002B86  88A0               	bsf	4000,4,c	;volatile
  2233  002B88  0012               	return		;funcret
  2234  002B8A                     __end_of_putrsUSBUSART:
  2235                           	opt callstack 0
  2236                           
  2237 ;; *************** function _putUSBUSART *****************
  2238 ;; Defined at:
  2239 ;;		line 557 in file "../../../../../../framework/usb/src/usb_device_cdc.c"
  2240 ;; Parameters:    Size  Location     Type
  2241 ;;  data            2    0[BANK0 ] PTR unsigned char 
  2242 ;;		 -> writeBuffer(64), 
  2243 ;;  length          1    2[BANK0 ] unsigned char 
  2244 ;; Auto vars:     Size  Location     Type
  2245 ;;		None
  2246 ;; Return value:  Size  Location     Type
  2247 ;;                  1    wreg      void 
  2248 ;; Registers used:
  2249 ;;		wreg, status,2, status,0
  2250 ;; Tracked objects:
  2251 ;;		On entry : 0/0
  2252 ;;		On exit  : 0/0
  2253 ;;		Unchanged: 0/0
  2254 ;; Data sizes:     COMRAM   BANK0   BANK1   BANK2   BANK3   BANK4   BANK5   BANK6   BANK7   BANK8   BANK9  BANK10  BANK1
      +1  BANK12  BANK13  BANK14
  2255 ;;      Params:         0       3       0       0       0       0       0       0       0       0       0       0       
      +0       0       0       0
  2256 ;;      Locals:         0       0       0       0       0       0       0       0       0       0       0       0       
      +0       0       0       0
  2257 ;;      Temps:          0       0       0       0       0       0       0       0       0       0       0       0       
      +0       0       0       0
  2258 ;;      Totals:         0       3       0       0       0       0       0       0       0       0       0       0       
      +0       0       0       0
  2259 ;;Total ram usage:        3 bytes
  2260 ;; Hardware stack levels used:    1
  2261 ;; Hardware stack levels required when called:   10
  2262 ;; This function calls:
  2263 ;;		Nothing
  2264 ;; This function is called by:
  2265 ;;		_APP_DeviceCDCBasicDemoTasks
  2266 ;; This function uses a non-reentrant model
  2267 ;;
  2268                           
  2269                           	psect	text9
  2270  002E54                     __ptext9:
  2271                           	opt callstack 0
  2272  002E54                     _putUSBUSART:
  2273                           	opt callstack 19
  2274                           
  2275                           ;../../../../../../framework/usb/src/usb_device_cdc.c: 557: void putUSBUSART(uint8_t *da
      +                          ta, uint8_t length);../../../../../../framework/usb/src/usb_device_cdc.c: 558: {;../../.
      +                          ./../../../framework/usb/src/usb_device_cdc.c: 582:     {PIE2bits.USBIE = 0;};
  2276                           
  2277                           ;incstack = 0
  2278  002E54  98A0               	bcf	4000,4,c	;volatile
  2279                           
  2280                           ;../../../../../../framework/usb/src/usb_device_cdc.c: 583:     if(cdc_trf_state == 0)
  2281  002E56  5037               	movf	_cdc_trf_state,w,c
  2282  002E58  A4D8               	btfss	status,2,c
  2283  002E5A  D00B               	goto	l5327
  2284                           
  2285                           ;../../../../../../framework/usb/src/usb_device_cdc.c: 584:     {;../../../../../../fram
      +                          ework/usb/src/usb_device_cdc.c: 585:         { pCDCSrc.bRam = (uint8_t*)data; cdc_tx_len
      +                           = length; cdc_mem_type = 0x01; cdc_trf_state = 1; };
  2286  002E5C  C0F6  F08B         	movff	putUSBUSART@data,_pCDCSrc
  2287  002E60  C0F7  F08C         	movff	putUSBUSART@data+1,_pCDCSrc+1
  2288  002E64  C0F8  F09A         	movff	putUSBUSART@length,_cdc_tx_len
  2289  002E68  0E01               	movlw	1
  2290  002E6A  0100               	movlb	0	; () banked
  2291  002E6C  6F99               	movwf	_cdc_mem_type& (0+255),b
  2292                           
  2293                           ; BSR set to: 0
  2294  002E6E  0E01               	movlw	1
  2295  002E70  6E37               	movwf	_cdc_trf_state,c
  2296  002E72                     l5327:
  2297                           
  2298                           ;../../../../../../framework/usb/src/usb_device_cdc.c: 587:     {PIE2bits.USBIE = 1;};
  2299  002E72  88A0               	bsf	4000,4,c	;volatile
  2300  002E74  0012               	return		;funcret
  2301  002E76                     __end_of_putUSBUSART:
  2302                           	opt callstack 0
  2303                           
  2304 ;; *************** function _getsUSBUSART *****************
  2305 ;; Defined at:
  2306 ;;		line 486 in file "../../../../../../framework/usb/src/usb_device_cdc.c"
  2307 ;; Parameters:    Size  Location     Type
  2308 ;;  buffer          2    3[BANK1 ] PTR unsigned char 
  2309 ;;		 -> readBuffer(64), 
  2310 ;;  len             1    5[BANK1 ] unsigned char 
  2311 ;; Auto vars:     Size  Location     Type
  2312 ;;		None
  2313 ;; Return value:  Size  Location     Type
  2314 ;;                  1    wreg      unsigned char 
  2315 ;; Registers used:
  2316 ;;		wreg, fsr1l, fsr1h, fsr2l, fsr2h, status,2, status,0, prodl, prodh, cstack
  2317 ;; Tracked objects:
  2318 ;;		On entry : 0/0
  2319 ;;		On exit  : 0/0
  2320 ;;		Unchanged: 0/0
  2321 ;; Data sizes:     COMRAM   BANK0   BANK1   BANK2   BANK3   BANK4   BANK5   BANK6   BANK7   BANK8   BANK9  BANK10  BANK1
      +1  BANK12  BANK13  BANK14
  2322 ;;      Params:         0       0       3       0       0       0       0       0       0       0       0       0       
      +0       0       0       0
  2323 ;;      Locals:         0       0       0       0       0       0       0       0       0       0       0       0       
      +0       0       0       0
  2324 ;;      Temps:          0       1       0       0       0       0       0       0       0       0       0       0       
      +0       0       0       0
  2325 ;;      Totals:         0       1       3       0       0       0       0       0       0       0       0       0       
      +0       0       0       0
  2326 ;;Total ram usage:        4 bytes
  2327 ;; Hardware stack levels used:    1
  2328 ;; Hardware stack levels required when called:   11
  2329 ;; This function calls:
  2330 ;;		_USBTransferOnePacket
  2331 ;; This function is called by:
  2332 ;;		_APP_DeviceCDCBasicDemoTasks
  2333 ;; This function uses a non-reentrant model
  2334 ;;
  2335                           
  2336                           	psect	text10
  2337  00253E                     __ptext10:
  2338                           	opt callstack 0
  2339  00253E                     _getsUSBUSART:
  2340                           	opt callstack 18
  2341                           
  2342                           ;../../../../../../framework/usb/src/usb_device_cdc.c: 486: uint8_t getsUSBUSART(uint8_t
      +                           *buffer, uint8_t len);../../../../../../framework/usb/src/usb_device_cdc.c: 487: {;../.
      +                          ./../../../../framework/usb/src/usb_device_cdc.c: 488:     cdc_rx_len = 0;
  2343                           
  2344                           ;incstack = 0
  2345  00253E  0E00               	movlw	0
  2346  002540  0100               	movlb	0	; () banked
  2347  002542  6F9B               	movwf	_cdc_rx_len& (0+255),b
  2348                           
  2349                           ; BSR set to: 0
  2350                           ;../../../../../../framework/usb/src/usb_device_cdc.c: 490:     if(!((CDCDataOutHandle !
      +                          = 0x0000) && ((*(volatile uint8_t*)CDCDataOutHandle & 0x80) != 0x00)))
  2351  002544  5196               	movf	_CDCDataOutHandle& (0+255),w,b
  2352  002546  1197               	iorwf	(_CDCDataOutHandle+1)& (0+255),w,b
  2353  002548  B4D8               	btfsc	status,2,c
  2354  00254A  D006               	goto	u3670
  2355                           
  2356                           ; BSR set to: 0
  2357  00254C  C096  FFD9         	movff	_CDCDataOutHandle,fsr2l
  2358  002550  C097  FFDA         	movff	_CDCDataOutHandle+1,fsr2h
  2359  002554  BEDF               	btfsc	indf2,7,c
  2360  002556  D041               	goto	l5311
  2361  002558                     u3670:
  2362                           
  2363                           ; BSR set to: 0
  2364                           ;../../../../../../framework/usb/src/usb_device_cdc.c: 491:     {;../../../../../../fram
      +                          ework/usb/src/usb_device_cdc.c: 496:         if(len > (((volatile BDT_ENTRY*)CDCDataOutH
      +                          andle)->CNT))
  2365  002558  EE20 F001          	lfsr	2,1
  2366  00255C  5196               	movf	_CDCDataOutHandle& (0+255),w,b
  2367  00255E  26D9               	addwf	fsr2l,f,c
  2368  002560  5197               	movf	(_CDCDataOutHandle+1)& (0+255),w,b
  2369  002562  22DA               	addwfc	fsr2h,f,c
  2370  002564  0101               	movlb	1	; () banked
  2371  002566  51C5               	movf	getsUSBUSART@len& (0+255),w,b
  2372  002568  5CDE               	subwf	postinc2,w,c
  2373  00256A  B0D8               	btfsc	status,0,c
  2374  00256C  D00A               	goto	l5301
  2375                           
  2376                           ; BSR set to: 1
  2377                           ;../../../../../../framework/usb/src/usb_device_cdc.c: 497:             len = (((volatil
      +                          e BDT_ENTRY*)CDCDataOutHandle)->CNT);
  2378  00256E  0100               	movlb	0	; () banked
  2379  002570  EE20 F001          	lfsr	2,1
  2380  002574  5196               	movf	_CDCDataOutHandle& (0+255),w,b
  2381  002576  26D9               	addwf	fsr2l,f,c
  2382  002578  5197               	movf	(_CDCDataOutHandle+1)& (0+255),w,b
  2383  00257A  22DA               	addwfc	fsr2h,f,c
  2384  00257C  50DF               	movf	indf2,w,c
  2385  00257E  0101               	movlb	1	; () banked
  2386  002580  6FC5               	movwf	getsUSBUSART@len& (0+255),b
  2387  002582                     l5301:
  2388                           
  2389                           ; BSR set to: 1
  2390                           ;../../../../../../framework/usb/src/usb_device_cdc.c: 502:         for(cdc_rx_len = 0; 
      +                          cdc_rx_len < len; cdc_rx_len++)
  2391  002582  0E00               	movlw	0
  2392  002584  0100               	movlb	0	; () banked
  2393  002586  6F9B               	movwf	_cdc_rx_len& (0+255),b
  2394  002588  D013               	goto	l5307
  2395  00258A                     l5303:
  2396                           
  2397                           ; BSR set to: 0
  2398                           ;../../../../../../framework/usb/src/usb_device_cdc.c: 503:             buffer[cdc_rx_le
      +                          n] = cdc_data_rx[cdc_rx_len];
  2399  00258A  0E9C               	movlw	low _cdc_data_rx
  2400  00258C  259B               	addwf	_cdc_rx_len& (0+255),w,b
  2401  00258E  6ED9               	movwf	fsr2l,c
  2402  002590  6ADA               	clrf	fsr2h,c
  2403  002592  0E00               	movlw	high _cdc_data_rx
  2404  002594  22DA               	addwfc	fsr2h,f,c
  2405  002596  519B               	movf	_cdc_rx_len& (0+255),w,b
  2406  002598  0101               	movlb	1	; () banked
  2407  00259A  25C3               	addwf	getsUSBUSART@buffer& (0+255),w,b
  2408  00259C  6EE1               	movwf	fsr1l,c
  2409  00259E  0100               	movlb	0	; () banked
  2410  0025A0  0E00               	movlw	0
  2411  0025A2  0101               	movlb	1	; () banked
  2412  0025A4  21C4               	addwfc	(getsUSBUSART@buffer+1)& (0+255),w,b
  2413  0025A6  6EE2               	movwf	fsr1h,c
  2414  0025A8  CFDF FFE7          	movff	indf2,indf1
  2415                           
  2416                           ; BSR set to: 1
  2417  0025AC  0100               	movlb	0	; () banked
  2418  0025AE  2B9B               	incf	_cdc_rx_len& (0+255),f,b
  2419  0025B0                     l5307:
  2420                           
  2421                           ; BSR set to: 0
  2422  0025B0  0101               	movlb	1	; () banked
  2423  0025B2  51C5               	movf	getsUSBUSART@len& (0+255),w,b
  2424  0025B4  0100               	movlb	0	; () banked
  2425  0025B6  5D9B               	subwf	_cdc_rx_len& (0+255),w,b
  2426  0025B8  A0D8               	btfss	status,0,c
  2427  0025BA  D7E7               	goto	l5303
  2428                           
  2429                           ; BSR set to: 0
  2430                           ;../../../../../../framework/usb/src/usb_device_cdc.c: 509:         CDCDataOutHandle = U
      +                          SBTransferOnePacket(2,0,(uint8_t*)&cdc_data_rx,sizeof(cdc_data_rx));
  2431  0025BC  0E00               	movlw	0
  2432  0025BE  6FF6               	movwf	USBTransferOnePacket@dir& (0+255),b
  2433  0025C0  0E9C               	movlw	low _cdc_data_rx
  2434  0025C2  6FF7               	movwf	USBTransferOnePacket@data& (0+255),b
  2435  0025C4  0E00               	movlw	high _cdc_data_rx
  2436  0025C6  6FF8               	movwf	(USBTransferOnePacket@data+1)& (0+255),b
  2437  0025C8  0E40               	movlw	64
  2438  0025CA  6FF9               	movwf	USBTransferOnePacket@len& (0+255),b
  2439  0025CC  0E02               	movlw	2
  2440  0025CE  ECD8  F00C         	call	_USBTransferOnePacket
  2441  0025D2  C0F6  F096         	movff	?_USBTransferOnePacket,_CDCDataOutHandle
  2442  0025D6  C0F7  F097         	movff	?_USBTransferOnePacket+1,_CDCDataOutHandle+1
  2443  0025DA                     l5311:
  2444                           
  2445                           ;../../../../../../framework/usb/src/usb_device_cdc.c: 513:     return cdc_rx_len;
  2446  0025DA  0100               	movlb	0	; () banked
  2447  0025DC  519B               	movf	_cdc_rx_len& (0+255),w,b
  2448                           
  2449                           ; BSR set to: 0
  2450  0025DE  0012               	return		;funcret
  2451  0025E0                     __end_of_getsUSBUSART:
  2452                           	opt callstack 0
  2453                           
  2454 ;; *************** function _CDCTxService *****************
  2455 ;; Defined at:
  2456 ;;		line 837 in file "../../../../../../framework/usb/src/usb_device_cdc.c"
  2457 ;; Parameters:    Size  Location     Type
  2458 ;;		None
  2459 ;; Auto vars:     Size  Location     Type
  2460 ;;  byte_to_send    1    9[BANK0 ] unsigned char 
  2461 ;;  i               1    8[BANK0 ] unsigned char 
  2462 ;; Return value:  Size  Location     Type
  2463 ;;                  1    wreg      void 
  2464 ;; Registers used:
  2465 ;;		wreg, fsr1l, fsr1h, fsr2l, fsr2h, status,2, status,0, prodl, prodh, cstack
  2466 ;; Tracked objects:
  2467 ;;		On entry : 0/0
  2468 ;;		On exit  : 0/0
  2469 ;;		Unchanged: 0/0
  2470 ;; Data sizes:     COMRAM   BANK0   BANK1   BANK2   BANK3   BANK4   BANK5   BANK6   BANK7   BANK8   BANK9  BANK10  BANK1
      +1  BANK12  BANK13  BANK14
  2471 ;;      Params:         0       0       0       0       0       0       0       0       0       0       0       0       
      +0       0       0       0
  2472 ;;      Locals:         0       2       0       0       0       0       0       0       0       0       0       0       
      +0       0       0       0
  2473 ;;      Temps:          0       0       0       0       0       0       0       0       0       0       0       0       
      +0       0       0       0
  2474 ;;      Totals:         0       2       0       0       0       0       0       0       0       0       0       0       
      +0       0       0       0
  2475 ;;Total ram usage:        2 bytes
  2476 ;; Hardware stack levels used:    1
  2477 ;; Hardware stack levels required when called:   11
  2478 ;; This function calls:
  2479 ;;		_USBTransferOnePacket
  2480 ;; This function is called by:
  2481 ;;		_APP_DeviceCDCBasicDemoTasks
  2482 ;; This function uses a non-reentrant model
  2483 ;;
  2484                           
  2485                           	psect	text11
  2486  001ACA                     __ptext11:
  2487                           	opt callstack 0
  2488  001ACA                     _CDCTxService:
  2489                           	opt callstack 18
  2490                           
  2491                           ;../../../../../../framework/usb/src/usb_device_cdc.c: 839:     uint8_t byte_to_send;;..
      +                          /../../../../../framework/usb/src/usb_device_cdc.c: 840:     uint8_t i;;../../../../../.
      +                          ./framework/usb/src/usb_device_cdc.c: 842:     {PIE2bits.USBIE = 0;};
  2492                           
  2493                           ; BSR set to: 0
  2494                           ;incstack = 0
  2495  001ACA  98A0               	bcf	4000,4,c	;volatile
  2496                           
  2497                           ;../../../../../../framework/usb/src/usb_device_cdc.c: 844:     {};;../../../../../../fr
      +                          amework/usb/src/usb_device_cdc.c: 846:     if(((CDCDataInHandle != 0x0000) && ((*(volati
      +                          le uint8_t*)CDCDataInHandle & 0x80) != 0x00)))
  2498  001ACC  0100               	movlb	0	; () banked
  2499  001ACE  5194               	movf	_CDCDataInHandle& (0+255),w,b
  2500  001AD0  1195               	iorwf	(_CDCDataInHandle+1)& (0+255),w,b
  2501  001AD2  B4D8               	btfsc	status,2,c
  2502  001AD4  D008               	goto	l5365
  2503                           
  2504                           ; BSR set to: 0
  2505  001AD6  C094  FFD9         	movff	_CDCDataInHandle,fsr2l
  2506  001ADA  C095  FFDA         	movff	_CDCDataInHandle+1,fsr2h
  2507  001ADE  AEDF               	btfss	indf2,7,c
  2508  001AE0  D002               	goto	l5365
  2509                           
  2510                           ; BSR set to: 0
  2511                           ;../../../../../../framework/usb/src/usb_device_cdc.c: 847:     {;../../../../../../fram
      +                          ework/usb/src/usb_device_cdc.c: 848:         {PIE2bits.USBIE = 1;};
  2512  001AE2  88A0               	bsf	4000,4,c	;volatile
  2513                           
  2514                           ;../../../../../../framework/usb/src/usb_device_cdc.c: 849:         return;
  2515  001AE4  0012               	return	
  2516  001AE6                     l5365:
  2517                           
  2518                           ; BSR set to: 0
  2519                           ;../../../../../../framework/usb/src/usb_device_cdc.c: 857:     if(cdc_trf_state == 3)
  2520  001AE6  0E03               	movlw	3
  2521  001AE8  1837               	xorwf	_cdc_trf_state,w,c
  2522  001AEA  A4D8               	btfss	status,2,c
  2523  001AEC  D002               	goto	l564
  2524                           
  2525                           ; BSR set to: 0
  2526                           ;../../../../../../framework/usb/src/usb_device_cdc.c: 858:         cdc_trf_state = 0;
  2527  001AEE  0E00               	movlw	0
  2528  001AF0  6E37               	movwf	_cdc_trf_state,c
  2529  001AF2                     l564:
  2530                           
  2531                           ; BSR set to: 0
  2532                           ;../../../../../../framework/usb/src/usb_device_cdc.c: 863:     if(cdc_trf_state == 0)
  2533  001AF2  5037               	movf	_cdc_trf_state,w,c
  2534  001AF4  A4D8               	btfss	status,2,c
  2535  001AF6  D002               	goto	l5371
  2536                           
  2537                           ; BSR set to: 0
  2538                           ;../../../../../../framework/usb/src/usb_device_cdc.c: 864:     {;../../../../../../fram
      +                          ework/usb/src/usb_device_cdc.c: 865:         {PIE2bits.USBIE = 1;};
  2539  001AF8  88A0               	bsf	4000,4,c	;volatile
  2540                           
  2541                           ;../../../../../../framework/usb/src/usb_device_cdc.c: 866:         return;
  2542  001AFA  0012               	return	
  2543  001AFC                     l5371:
  2544                           
  2545                           ; BSR set to: 0
  2546                           ;../../../../../../framework/usb/src/usb_device_cdc.c: 872:     if(cdc_trf_state == 2)
  2547  001AFC  0E02               	movlw	2
  2548  001AFE  1837               	xorwf	_cdc_trf_state,w,c
  2549  001B00  A4D8               	btfss	status,2,c
  2550  001B02  D012               	goto	l5377
  2551                           
  2552                           ; BSR set to: 0
  2553                           ;../../../../../../framework/usb/src/usb_device_cdc.c: 873:     {;../../../../../../fram
      +                          ework/usb/src/usb_device_cdc.c: 874:         CDCDataInHandle = USBTransferOnePacket(2,1,
      +                          ((void*)0),0);
  2554  001B04  0E01               	movlw	1
  2555  001B06  6FF6               	movwf	USBTransferOnePacket@dir& (0+255),b
  2556  001B08  0E00               	movlw	0
  2557  001B0A  6FF7               	movwf	USBTransferOnePacket@data& (0+255),b
  2558  001B0C  0E00               	movlw	0
  2559  001B0E  6FF8               	movwf	(USBTransferOnePacket@data+1)& (0+255),b
  2560  001B10  0E00               	movlw	0
  2561  001B12  6FF9               	movwf	USBTransferOnePacket@len& (0+255),b
  2562  001B14  0E02               	movlw	2
  2563  001B16  ECD8  F00C         	call	_USBTransferOnePacket
  2564  001B1A  C0F6  F094         	movff	?_USBTransferOnePacket,_CDCDataInHandle
  2565  001B1E  C0F7  F095         	movff	?_USBTransferOnePacket+1,_CDCDataInHandle+1
  2566                           
  2567                           ;../../../../../../framework/usb/src/usb_device_cdc.c: 876:         cdc_trf_state = 3;
  2568  001B22  0E03               	movlw	3
  2569  001B24  6E37               	movwf	_cdc_trf_state,c
  2570                           
  2571                           ;../../../../../../framework/usb/src/usb_device_cdc.c: 877:     }
  2572  001B26  D057               	goto	l5421
  2573  001B28                     l5377:
  2574                           
  2575                           ; BSR set to: 0
  2576  001B28  0437               	decf	_cdc_trf_state,w,c
  2577  001B2A  A4D8               	btfss	status,2,c
  2578  001B2C  D054               	goto	l5421
  2579                           
  2580                           ; BSR set to: 0
  2581                           ;../../../../../../framework/usb/src/usb_device_cdc.c: 879:     {;../../../../../../fram
      +                          ework/usb/src/usb_device_cdc.c: 883:      if(cdc_tx_len > sizeof(cdc_data_tx))
  2582  001B2E  0E40               	movlw	64
  2583  001B30  659A               	cpfsgt	_cdc_tx_len& (0+255),b
  2584  001B32  D003               	goto	l569
  2585                           
  2586                           ; BSR set to: 0
  2587                           ;../../../../../../framework/usb/src/usb_device_cdc.c: 884:          byte_to_send = size
      +                          of(cdc_data_tx);
  2588  001B34  0E40               	movlw	64
  2589  001B36  6FFF               	movwf	CDCTxService@byte_to_send& (0+255),b
  2590  001B38  D002               	goto	l5383
  2591  001B3A                     l569:
  2592                           
  2593                           ; BSR set to: 0
  2594                           ;../../../../../../framework/usb/src/usb_device_cdc.c: 886:          byte_to_send = cdc_
      +                          tx_len;
  2595  001B3A  C09A  F0FF         	movff	_cdc_tx_len,CDCTxService@byte_to_send
  2596  001B3E                     l5383:
  2597                           
  2598                           ; BSR set to: 0
  2599                           ;../../../../../../framework/usb/src/usb_device_cdc.c: 891:      cdc_tx_len = cdc_tx_len
      +                           - byte_to_send;
  2600  001B3E  51FF               	movf	CDCTxService@byte_to_send& (0+255),w,b
  2601  001B40  5D9A               	subwf	_cdc_tx_len& (0+255),w,b
  2602  001B42  6F9A               	movwf	_cdc_tx_len& (0+255),b
  2603                           
  2604                           ;../../../../../../framework/usb/src/usb_device_cdc.c: 893:         pCDCDst.bRam = (uint
      +                          8_t*)&cdc_data_tx;
  2605  001B44  0E80               	movlw	low _cdc_data_tx
  2606  001B46  6F88               	movwf	_pCDCDst& (0+255),b
  2607  001B48  0E01               	movlw	high _cdc_data_tx
  2608  001B4A  6F89               	movwf	(_pCDCDst+1)& (0+255),b
  2609                           
  2610                           ; BSR set to: 0
  2611                           ;../../../../../../framework/usb/src/usb_device_cdc.c: 895:         i = byte_to_send;
  2612  001B4C  C0FF  F0FE         	movff	CDCTxService@byte_to_send,CDCTxService@i
  2613                           
  2614                           ; BSR set to: 0
  2615                           ;../../../../../../framework/usb/src/usb_device_cdc.c: 896:         if(cdc_mem_type == 0
      +                          x00)
  2616  001B50  5199               	movf	_cdc_mem_type& (0+255),w,b
  2617  001B52  B4D8               	btfsc	status,2,c
  2618  001B54  D010               	goto	l5399
  2619  001B56  D022               	goto	l5409
  2620  001B58                     l5391:
  2621                           
  2622                           ; BSR set to: 0
  2623                           ;../../../../../../framework/usb/src/usb_device_cdc.c: 899:             {;../../../../..
      +                          /../framework/usb/src/usb_device_cdc.c: 900:                 *pCDCDst.bRam = *pCDCSrc.bR
      +                          om;
  2624  001B58  C08B  FFD9         	movff	_pCDCSrc,fsr2l
  2625  001B5C  C08C  FFDA         	movff	_pCDCSrc+1,fsr2h
  2626  001B60  C088  FFE1         	movff	_pCDCDst,fsr1l
  2627  001B64  C089  FFE2         	movff	_pCDCDst+1,fsr1h
  2628  001B68  CFDF FFE7          	movff	indf2,indf1
  2629                           
  2630                           ; BSR set to: 0
  2631                           ;../../../../../../framework/usb/src/usb_device_cdc.c: 901:                 pCDCDst.bRam
      +                          ++;
  2632  001B6C  4B88               	infsnz	_pCDCDst& (0+255),f,b
  2633  001B6E  2B89               	incf	(_pCDCDst+1)& (0+255),f,b
  2634                           
  2635                           ; BSR set to: 0
  2636                           ;../../../../../../framework/usb/src/usb_device_cdc.c: 902:                 pCDCSrc.bRom
      +                          ++;
  2637  001B70  4B8B               	infsnz	_pCDCSrc& (0+255),f,b
  2638  001B72  2B8C               	incf	(_pCDCSrc+1)& (0+255),f,b
  2639                           
  2640                           ; BSR set to: 0
  2641                           ;../../../../../../framework/usb/src/usb_device_cdc.c: 903:                 i--;
  2642  001B74  07FE               	decf	CDCTxService@i& (0+255),f,b
  2643  001B76                     l5399:
  2644                           
  2645                           ; BSR set to: 0
  2646                           ;../../../../../../framework/usb/src/usb_device_cdc.c: 898:             while(i)
  2647  001B76  51FE               	movf	CDCTxService@i& (0+255),w,b
  2648  001B78  B4D8               	btfsc	status,2,c
  2649  001B7A  D013               	goto	u3830
  2650  001B7C  D7ED               	goto	l5391
  2651  001B7E                     l5401:
  2652                           
  2653                           ; BSR set to: 0
  2654                           ;../../../../../../framework/usb/src/usb_device_cdc.c: 909:             {;../../../../..
      +                          /../framework/usb/src/usb_device_cdc.c: 910:                 *pCDCDst.bRam = *pCDCSrc.bR
      +                          am;
  2655  001B7E  C08B  FFD9         	movff	_pCDCSrc,fsr2l
  2656  001B82  C08C  FFDA         	movff	_pCDCSrc+1,fsr2h
  2657  001B86  C088  FFE1         	movff	_pCDCDst,fsr1l
  2658  001B8A  C089  FFE2         	movff	_pCDCDst+1,fsr1h
  2659  001B8E  CFDF FFE7          	movff	indf2,indf1
  2660                           
  2661                           ; BSR set to: 0
  2662                           ;../../../../../../framework/usb/src/usb_device_cdc.c: 911:                 pCDCDst.bRam
      +                          ++;
  2663  001B92  4B88               	infsnz	_pCDCDst& (0+255),f,b
  2664  001B94  2B89               	incf	(_pCDCDst+1)& (0+255),f,b
  2665                           
  2666                           ; BSR set to: 0
  2667                           ;../../../../../../framework/usb/src/usb_device_cdc.c: 912:                 pCDCSrc.bRam
      +                          ++;
  2668  001B96  4B8B               	infsnz	_pCDCSrc& (0+255),f,b
  2669  001B98  2B8C               	incf	(_pCDCSrc+1)& (0+255),f,b
  2670                           
  2671                           ; BSR set to: 0
  2672                           ;../../../../../../framework/usb/src/usb_device_cdc.c: 913:                 i--;
  2673  001B9A  07FE               	decf	CDCTxService@i& (0+255),f,b
  2674  001B9C                     l5409:
  2675                           
  2676                           ; BSR set to: 0
  2677                           ;../../../../../../framework/usb/src/usb_device_cdc.c: 908:             while(i)
  2678  001B9C  51FE               	movf	CDCTxService@i& (0+255),w,b
  2679  001B9E  A4D8               	btfss	status,2,c
  2680  001BA0  D7EE               	goto	l5401
  2681  001BA2                     u3830:
  2682                           
  2683                           ; BSR set to: 0
  2684                           ;../../../../../../framework/usb/src/usb_device_cdc.c: 921:         if(cdc_tx_len == 0)
  2685  001BA2  519A               	movf	_cdc_tx_len& (0+255),w,b
  2686  001BA4  A4D8               	btfss	status,2,c
  2687  001BA6  D008               	goto	l5419
  2688                           
  2689                           ; BSR set to: 0
  2690                           ;../../../../../../framework/usb/src/usb_device_cdc.c: 922:         {;../../../../../../
      +                          framework/usb/src/usb_device_cdc.c: 923:             if(byte_to_send == 64)
  2691  001BA8  0E40               	movlw	64
  2692  001BAA  19FF               	xorwf	CDCTxService@byte_to_send& (0+255),w,b
  2693  001BAC  A4D8               	btfss	status,2,c
  2694  001BAE  D002               	goto	l5417
  2695                           
  2696                           ; BSR set to: 0
  2697                           ;../../../../../../framework/usb/src/usb_device_cdc.c: 924:                 cdc_trf_stat
      +                          e = 2;
  2698  001BB0  0E02               	movlw	2
  2699  001BB2  D001               	goto	L2
  2700  001BB4                     l5417:
  2701                           
  2702                           ; BSR set to: 0
  2703                           ;../../../../../../framework/usb/src/usb_device_cdc.c: 926:                 cdc_trf_stat
      +                          e = 3;
  2704  001BB4  0E03               	movlw	3
  2705  001BB6                     L2:
  2706  001BB6  6E37               	movwf	_cdc_trf_state,c
  2707  001BB8                     l5419:
  2708                           
  2709                           ; BSR set to: 0
  2710                           ;../../../../../../framework/usb/src/usb_device_cdc.c: 928:         CDCDataInHandle = US
      +                          BTransferOnePacket(2,1,(uint8_t*)&cdc_data_tx,byte_to_send);
  2711  001BB8  0E01               	movlw	1
  2712  001BBA  6FF6               	movwf	USBTransferOnePacket@dir& (0+255),b
  2713  001BBC  0E80               	movlw	low _cdc_data_tx
  2714  001BBE  6FF7               	movwf	USBTransferOnePacket@data& (0+255),b
  2715  001BC0  0E01               	movlw	high _cdc_data_tx
  2716  001BC2  6FF8               	movwf	(USBTransferOnePacket@data+1)& (0+255),b
  2717  001BC4  C0FF  F0F9         	movff	CDCTxService@byte_to_send,USBTransferOnePacket@len
  2718  001BC8  0E02               	movlw	2
  2719  001BCA  ECD8  F00C         	call	_USBTransferOnePacket
  2720  001BCE  C0F6  F094         	movff	?_USBTransferOnePacket,_CDCDataInHandle
  2721  001BD2  C0F7  F095         	movff	?_USBTransferOnePacket+1,_CDCDataInHandle+1
  2722  001BD6                     l5421:
  2723                           
  2724                           ;../../../../../../framework/usb/src/usb_device_cdc.c: 932:     {PIE2bits.USBIE = 1;};
  2725  001BD6  88A0               	bsf	4000,4,c	;volatile
  2726  001BD8  0012               	return		;funcret
  2727  001BDA                     __end_of_CDCTxService:
  2728                           	opt callstack 0
  2729                           
  2730 ;; *************** function _USBTransferOnePacket *****************
  2731 ;; Defined at:
  2732 ;;		line 999 in file "../../../../../../framework/usb/src/usb_device.c"
  2733 ;; Parameters:    Size  Location     Type
  2734 ;;  ep              1    wreg     unsigned char 
  2735 ;;  dir             1    0[BANK0 ] unsigned char 
  2736 ;;  data            2    1[BANK0 ] PTR unsigned char 
  2737 ;;		 -> cdc_data_tx(64), cdc_data_rx(64), NULL(0), 
  2738 ;;  len             1    3[BANK0 ] unsigned char 
  2739 ;; Auto vars:     Size  Location     Type
  2740 ;;  ep              1    0[BANK1 ] unsigned char 
  2741 ;;  handle          2    1[BANK1 ] PTR volatile struct __BD
  2742 ;;		 -> RAM(3775), NULL(0), BDT(48), 
  2743 ;; Return value:  Size  Location     Type
  2744 ;;                  2    0[BANK0 ] PTR void 
  2745 ;; Registers used:
  2746 ;;		wreg, fsr2l, fsr2h, status,2, status,0, prodl, prodh
  2747 ;; Tracked objects:
  2748 ;;		On entry : 0/0
  2749 ;;		On exit  : 0/0
  2750 ;;		Unchanged: 0/0
  2751 ;; Data sizes:     COMRAM   BANK0   BANK1   BANK2   BANK3   BANK4   BANK5   BANK6   BANK7   BANK8   BANK9  BANK10  BANK1
      +1  BANK12  BANK13  BANK14
  2752 ;;      Params:         0       4       0       0       0       0       0       0       0       0       0       0       
      +0       0       0       0
  2753 ;;      Locals:         0       0       3       0       0       0       0       0       0       0       0       0       
      +0       0       0       0
  2754 ;;      Temps:          0       4       0       0       0       0       0       0       0       0       0       0       
      +0       0       0       0
  2755 ;;      Totals:         0       8       3       0       0       0       0       0       0       0       0       0       
      +0       0       0       0
  2756 ;;Total ram usage:       11 bytes
  2757 ;; Hardware stack levels used:    1
  2758 ;; Hardware stack levels required when called:   10
  2759 ;; This function calls:
  2760 ;;		Nothing
  2761 ;; This function is called by:
  2762 ;;		_getsUSBUSART
  2763 ;;		_CDCTxService
  2764 ;;		_USBCDCEventHandler
  2765 ;; This function uses a non-reentrant model
  2766 ;;
  2767                           
  2768                           	psect	text12
  2769  0019B0                     __ptext12:
  2770                           	opt callstack 0
  2771  0019B0                     _USBTransferOnePacket:
  2772                           	opt callstack 18
  2773                           
  2774                           ;incstack = 0
  2775                           ;USBTransferOnePacket@ep stored from wreg
  2776  0019B0  0101               	movlb	1	; () banked
  2777  0019B2  6FC0               	movwf	USBTransferOnePacket@ep& (0+255),b
  2778                           
  2779                           ;../../../../../../framework/usb/src/usb_device.c: 999: void* USBTransferOnePacket(uint8
      +                          _t ep,uint8_t dir,uint8_t* data,uint8_t len);../../../../../../framework/usb/src/usb_dev
      +                          ice.c: 1000: {;../../../../../../framework/usb/src/usb_device.c: 1001:     volatile BDT_
      +                          ENTRY* handle;;../../../../../../framework/usb/src/usb_device.c: 1004:     if(dir != 0)
  2780  0019B4  0100               	movlb	0	; () banked
  2781  0019B6  51F6               	movf	USBTransferOnePacket@dir& (0+255),w,b
  2782  0019B8  B4D8               	btfsc	status,2,c
  2783  0019BA  D008               	goto	l5191
  2784                           
  2785                           ; BSR set to: 0
  2786                           ;../../../../../../framework/usb/src/usb_device.c: 1005:     {;../../../../../../framewo
      +                          rk/usb/src/usb_device.c: 1007:         handle = pBDTEntryIn[ep];
  2787  0019BC  0101               	movlb	1	; () banked
  2788  0019BE  51C0               	movf	USBTransferOnePacket@ep& (0+255),w,b
  2789  0019C0  0D02               	mullw	2
  2790  0019C2  0E78               	movlw	low _pBDTEntryIn
  2791  0019C4  24F3               	addwf	prodl,w,c
  2792  0019C6  6ED9               	movwf	fsr2l,c
  2793  0019C8  0E00               	movlw	high _pBDTEntryIn
  2794  0019CA  D007               	goto	L3
  2795  0019CC                     l5191:
  2796                           
  2797                           ; BSR set to: 0
  2798                           ;../../../../../../framework/usb/src/usb_device.c: 1010:     {;../../../../../../framewo
      +                          rk/usb/src/usb_device.c: 1012:         handle = pBDTEntryOut[ep];
  2799  0019CC  0101               	movlb	1	; () banked
  2800  0019CE  51C0               	movf	USBTransferOnePacket@ep& (0+255),w,b
  2801  0019D0  0D02               	mullw	2
  2802  0019D2  0E7E               	movlw	low _pBDTEntryOut
  2803  0019D4  24F3               	addwf	prodl,w,c
  2804  0019D6  6ED9               	movwf	fsr2l,c
  2805  0019D8  0E00               	movlw	high _pBDTEntryOut
  2806  0019DA                     L3:
  2807  0019DA  20F4               	addwfc	prodh,w,c
  2808  0019DC  6EDA               	movwf	fsr2h,c
  2809  0019DE  CFDE F1C1          	movff	postinc2,USBTransferOnePacket@handle
  2810  0019E2  CFDD F1C2          	movff	postdec2,USBTransferOnePacket@handle+1
  2811                           
  2812                           ; BSR set to: 1
  2813                           ;../../../../../../framework/usb/src/usb_device.c: 1017:     if(handle == 0)
  2814  0019E6  51C1               	movf	USBTransferOnePacket@handle& (0+255),w,b
  2815  0019E8  11C2               	iorwf	(USBTransferOnePacket@handle+1)& (0+255),w,b
  2816  0019EA  A4D8               	btfss	status,2,c
  2817  0019EC  D006               	goto	l5199
  2818                           
  2819                           ; BSR set to: 1
  2820                           ;../../../../../../framework/usb/src/usb_device.c: 1018:     {;../../../../../../framewo
      +                          rk/usb/src/usb_device.c: 1019:         return 0;
  2821  0019EE  0E00               	movlw	0
  2822  0019F0  0100               	movlb	0	; () banked
  2823  0019F2  6FF6               	movwf	?_USBTransferOnePacket& (0+255),b
  2824  0019F4  0E00               	movlw	0
  2825  0019F6  6FF7               	movwf	(?_USBTransferOnePacket+1)& (0+255),b
  2826  0019F8  0012               	return	
  2827  0019FA                     l5199:
  2828                           
  2829                           ; BSR set to: 1
  2830                           ;../../../../../../framework/usb/src/usb_device.c: 1033:     handle->ADR = ((uint16_t)(d
      +                          ata));
  2831  0019FA  EE20 F002          	lfsr	2,2
  2832  0019FE  51C1               	movf	USBTransferOnePacket@handle& (0+255),w,b
  2833  001A00  26D9               	addwf	fsr2l,f,c
  2834  001A02  51C2               	movf	(USBTransferOnePacket@handle+1)& (0+255),w,b
  2835  001A04  22DA               	addwfc	fsr2h,f,c
  2836  001A06  C0F7  FFDE         	movff	USBTransferOnePacket@data,postinc2
  2837  001A0A  C0F8  FFDD         	movff	USBTransferOnePacket@data+1,postdec2
  2838                           
  2839                           ;../../../../../../framework/usb/src/usb_device.c: 1034:     handle->CNT = len;
  2840  001A0E  EE20 F001          	lfsr	2,1
  2841  001A12  51C1               	movf	USBTransferOnePacket@handle& (0+255),w,b
  2842  001A14  26D9               	addwf	fsr2l,f,c
  2843  001A16  51C2               	movf	(USBTransferOnePacket@handle+1)& (0+255),w,b
  2844  001A18  22DA               	addwfc	fsr2h,f,c
  2845  001A1A  C0F9  FFDF         	movff	USBTransferOnePacket@len,indf2
  2846                           
  2847                           ; BSR set to: 1
  2848                           ;../../../../../../framework/usb/src/usb_device.c: 1035:     handle->STAT.Val &= 0x40;
  2849  001A1E  C1C1  FFD9         	movff	USBTransferOnePacket@handle,fsr2l
  2850  001A22  C1C2  FFDA         	movff	USBTransferOnePacket@handle+1,fsr2h
  2851  001A26  0E40               	movlw	64
  2852  001A28  16DF               	andwf	indf2,f,c
  2853                           
  2854                           ; BSR set to: 1
  2855                           ;../../../../../../framework/usb/src/usb_device.c: 1036:     handle->STAT.Val |= (0x08 &
      +                           0x08);
  2856  001A2A  C1C1  FFD9         	movff	USBTransferOnePacket@handle,fsr2l
  2857  001A2E  C1C2  FFDA         	movff	USBTransferOnePacket@handle+1,fsr2h
  2858  001A32  0E00               	movlw	0
  2859  001A34  86DB               	bsf	plusw2,3,c
  2860                           
  2861                           ; BSR set to: 1
  2862                           ;../../../../../../framework/usb/src/usb_device.c: 1037:     handle->STAT.Val |= 0x80;
  2863  001A36  C1C1  FFD9         	movff	USBTransferOnePacket@handle,fsr2l
  2864  001A3A  C1C2  FFDA         	movff	USBTransferOnePacket@handle+1,fsr2h
  2865  001A3E  0E00               	movlw	0
  2866  001A40  8EDB               	bsf	plusw2,7,c
  2867                           
  2868                           ; BSR set to: 1
  2869                           ;../../../../../../framework/usb/src/usb_device.c: 1040:     if(dir != 0)
  2870  001A42  0100               	movlb	0	; () banked
  2871  001A44  51F6               	movf	USBTransferOnePacket@dir& (0+255),w,b
  2872  001A46  B4D8               	btfsc	status,2,c
  2873  001A48  D01B               	goto	l5211
  2874                           
  2875                           ; BSR set to: 0
  2876                           ;../../../../../../framework/usb/src/usb_device.c: 1041:     {;../../../../../../framewo
      +                          rk/usb/src/usb_device.c: 1043:         pBDTEntryIn[ep] = (BDT_ENTRY*)(((uint16_t)pBDTEnt
      +                          ryIn[ep]) ^ 0x0004);
  2877  001A4A  0101               	movlb	1	; () banked
  2878  001A4C  51C0               	movf	USBTransferOnePacket@ep& (0+255),w,b
  2879  001A4E  0D02               	mullw	2
  2880  001A50  0E78               	movlw	low _pBDTEntryIn
  2881  001A52  24F3               	addwf	prodl,w,c
  2882  001A54  6ED9               	movwf	fsr2l,c
  2883  001A56  0E00               	movlw	high _pBDTEntryIn
  2884  001A58  20F4               	addwfc	prodh,w,c
  2885  001A5A  6EDA               	movwf	fsr2h,c
  2886  001A5C  CFDE F0FA          	movff	postinc2,??_USBTransferOnePacket
  2887  001A60  CFDD F0FB          	movff	postdec2,??_USBTransferOnePacket+1
  2888  001A64  0E04               	movlw	4
  2889  001A66  0100               	movlb	0	; () banked
  2890  001A68  19FA               	xorwf	??_USBTransferOnePacket& (0+255),w,b
  2891  001A6A  6FFC               	movwf	(??_USBTransferOnePacket+2)& (0+255),b
  2892  001A6C  51FB               	movf	(??_USBTransferOnePacket+1)& (0+255),w,b
  2893  001A6E  6FFD               	movwf	(??_USBTransferOnePacket+3)& (0+255),b
  2894  001A70  0101               	movlb	1	; () banked
  2895  001A72  51C0               	movf	USBTransferOnePacket@ep& (0+255),w,b
  2896  001A74  0D02               	mullw	2
  2897  001A76  0E78               	movlw	low _pBDTEntryIn
  2898  001A78  24F3               	addwf	prodl,w,c
  2899  001A7A  6ED9               	movwf	fsr2l,c
  2900  001A7C  0E00               	movlw	high _pBDTEntryIn
  2901  001A7E  D01A               	goto	L4
  2902  001A80                     l5211:
  2903                           
  2904                           ; BSR set to: 0
  2905                           ;../../../../../../framework/usb/src/usb_device.c: 1046:     {;../../../../../../framewo
      +                          rk/usb/src/usb_device.c: 1048:         pBDTEntryOut[ep] = (BDT_ENTRY*)(((uint16_t)pBDTEn
      +                          tryOut[ep]) ^ 0x0004);
  2906  001A80  0101               	movlb	1	; () banked
  2907  001A82  51C0               	movf	USBTransferOnePacket@ep& (0+255),w,b
  2908  001A84  0D02               	mullw	2
  2909  001A86  0E7E               	movlw	low _pBDTEntryOut
  2910  001A88  24F3               	addwf	prodl,w,c
  2911  001A8A  6ED9               	movwf	fsr2l,c
  2912  001A8C  0E00               	movlw	high _pBDTEntryOut
  2913  001A8E  20F4               	addwfc	prodh,w,c
  2914  001A90  6EDA               	movwf	fsr2h,c
  2915  001A92  CFDE F0FA          	movff	postinc2,??_USBTransferOnePacket
  2916  001A96  CFDD F0FB          	movff	postdec2,??_USBTransferOnePacket+1
  2917  001A9A  0E04               	movlw	4
  2918  001A9C  0100               	movlb	0	; () banked
  2919  001A9E  19FA               	xorwf	??_USBTransferOnePacket& (0+255),w,b
  2920  001AA0  6FFC               	movwf	(??_USBTransferOnePacket+2)& (0+255),b
  2921  001AA2  51FB               	movf	(??_USBTransferOnePacket+1)& (0+255),w,b
  2922  001AA4  6FFD               	movwf	(??_USBTransferOnePacket+3)& (0+255),b
  2923  001AA6  0101               	movlb	1	; () banked
  2924  001AA8  51C0               	movf	USBTransferOnePacket@ep& (0+255),w,b
  2925  001AAA  0D02               	mullw	2
  2926  001AAC  0E7E               	movlw	low _pBDTEntryOut
  2927  001AAE  24F3               	addwf	prodl,w,c
  2928  001AB0  6ED9               	movwf	fsr2l,c
  2929  001AB2  0E00               	movlw	high _pBDTEntryOut
  2930  001AB4                     L4:
  2931  001AB4  20F4               	addwfc	prodh,w,c
  2932  001AB6  6EDA               	movwf	fsr2h,c
  2933  001AB8  C0FC  FFDE         	movff	??_USBTransferOnePacket+2,postinc2
  2934  001ABC  C0FD  FFDD         	movff	??_USBTransferOnePacket+3,postdec2
  2935                           
  2936                           ; BSR set to: 1
  2937                           ;../../../../../../framework/usb/src/usb_device.c: 1050:     return (void*)handle;
  2938  001AC0  C1C1  F0F6         	movff	USBTransferOnePacket@handle,?_USBTransferOnePacket
  2939  001AC4  C1C2  F0F7         	movff	USBTransferOnePacket@handle+1,?_USBTransferOnePacket+1
  2940  001AC8  0012               	return		;funcret
  2941  001ACA                     __end_of_USBTransferOnePacket:
  2942                           	opt callstack 0
  2943                           
  2944 ;; *************** function _BUTTON_IsPressed *****************
  2945 ;; Defined at:
  2946 ;;		line 58 in file "../../../../../../bsp/pic18f46j50_pim/buttons.c"
  2947 ;; Parameters:    Size  Location     Type
  2948 ;;  button          1    wreg     enum E5821
  2949 ;; Auto vars:     Size  Location     Type
  2950 ;;  button          1    2[BANK0 ] enum E5821
  2951 ;; Return value:  Size  Location     Type
  2952 ;;                  1    wreg      _Bool 
  2953 ;; Registers used:
  2954 ;;		wreg, status,2, status,0
  2955 ;; Tracked objects:
  2956 ;;		On entry : 0/0
  2957 ;;		On exit  : 0/0
  2958 ;;		Unchanged: 0/0
  2959 ;; Data sizes:     COMRAM   BANK0   BANK1   BANK2   BANK3   BANK4   BANK5   BANK6   BANK7   BANK8   BANK9  BANK10  BANK1
      +1  BANK12  BANK13  BANK14
  2960 ;;      Params:         0       0       0       0       0       0       0       0       0       0       0       0       
      +0       0       0       0
  2961 ;;      Locals:         0       1       0       0       0       0       0       0       0       0       0       0       
      +0       0       0       0
  2962 ;;      Temps:          0       2       0       0       0       0       0       0       0       0       0       0       
      +0       0       0       0
  2963 ;;      Totals:         0       3       0       0       0       0       0       0       0       0       0       0       
      +0       0       0       0
  2964 ;;Total ram usage:        3 bytes
  2965 ;; Hardware stack levels used:    1
  2966 ;; Hardware stack levels required when called:   10
  2967 ;; This function calls:
  2968 ;;		Nothing
  2969 ;; This function is called by:
  2970 ;;		_APP_DeviceCDCBasicDemoTasks
  2971 ;; This function uses a non-reentrant model
  2972 ;;
  2973                           
  2974                           	psect	text13
  2975  002C4A                     __ptext13:
  2976                           	opt callstack 0
  2977  002C4A                     _BUTTON_IsPressed:
  2978                           	opt callstack 19
  2979                           
  2980                           ;incstack = 0
  2981                           ;BUTTON_IsPressed@button stored from wreg
  2982  002C4A  0100               	movlb	0	; () banked
  2983  002C4C  6FF8               	movwf	BUTTON_IsPressed@button& (0+255),b
  2984                           
  2985                           ;../../../../../../bsp/pic18f46j50_pim/buttons.c: 58: _Bool BUTTON_IsPressed(BUTTON butt
      +                          on);../../../../../../bsp/pic18f46j50_pim/buttons.c: 59: {;../../../../../../bsp/pic18f4
      +                          6j50_pim/buttons.c: 60:     switch(button)
  2986  002C4E  D008               	goto	l5225
  2987  002C50                     l10:
  2988                           
  2989                           ; BSR set to: 0
  2990                           ;../../../../../../bsp/pic18f46j50_pim/buttons.c: 63:             return ( (PORTBbits.RB
      +                          2 == 0) ? 1 : 0);
  2991  002C50  B481               	btfsc	3969,2,c	;volatile
  2992  002C52  D002               	goto	u3590
  2993  002C54  0E01               	movlw	1
  2994  002C56  0012               	return	
  2995  002C58                     u3590:
  2996  002C58  0E00               	movlw	0
  2997  002C5A  0012               	return	
  2998  002C5C                     l5219:
  2999                           
  3000                           ; BSR set to: 0
  3001                           ;../../../../../../bsp/pic18f46j50_pim/buttons.c: 66:             return 0;
  3002  002C5C  0E00               	movlw	0
  3003  002C5E  0012               	return	
  3004  002C60                     l5225:
  3005  002C60  0100               	movlb	0	; () banked
  3006  002C62  51F8               	movf	BUTTON_IsPressed@button& (0+255),w,b
  3007  002C64  6FF6               	movwf	??_BUTTON_IsPressed& (0+255),b
  3008  002C66  6BF7               	clrf	(??_BUTTON_IsPressed+1)& (0+255),b
  3009                           
  3010                           ; Switch on 2 bytes has been partitioned into a top level switch of size 1, and 1 sub-sw
      +                          itches
  3011                           ; Switch size 1, requested type "simple"
  3012                           ; Number of cases is 1, Range of values is 0 to 0
  3013                           ; switch strategies available:
  3014                           ; Name         Instructions Cycles
  3015                           ; simple_byte            4     3 (average)
  3016                           ;	Chosen strategy is simple_byte
  3017  002C68  51F7               	movf	(??_BUTTON_IsPressed+1)& (0+255),w,b
  3018  002C6A  0A00               	xorlw	0	; case 0
  3019  002C6C  A4D8               	btfss	status,2,c
  3020  002C6E  D7F6               	goto	l5219
  3021                           
  3022                           ; BSR set to: 0
  3023                           ; Switch size 1, requested type "simple"
  3024                           ; Number of cases is 2, Range of values is 0 to 1
  3025                           ; switch strategies available:
  3026                           ; Name         Instructions Cycles
  3027                           ; simple_byte            7     4 (average)
  3028                           ;	Chosen strategy is simple_byte
  3029  002C70  51F6               	movf	??_BUTTON_IsPressed& (0+255),w,b
  3030  002C72  0A00               	xorlw	0	; case 0
  3031  002C74  B4D8               	btfsc	status,2,c
  3032  002C76  D7F2               	goto	l5219
  3033  002C78  0A01               	xorlw	1	; case 1
  3034  002C7A  B4D8               	btfsc	status,2,c
  3035  002C7C  D7E9               	goto	l10
  3036  002C7E  D7EE               	goto	l5219
  3037  002C80                     __end_of_BUTTON_IsPressed:
  3038                           	opt callstack 0
  3039                           
  3040 ;; *************** function _SYS_InterruptHigh *****************
  3041 ;; Defined at:
  3042 ;;		line 114 in file "system.c"
  3043 ;; Parameters:    Size  Location     Type
  3044 ;;		None
  3045 ;; Auto vars:     Size  Location     Type
  3046 ;;		None
  3047 ;; Return value:  Size  Location     Type
  3048 ;;                  1    wreg      void 
  3049 ;; Registers used:
  3050 ;;		wreg, fsr1l, fsr1h, fsr2l, fsr2h, status,2, status,0, tblptrl, tblptrh, tblptru, prodl, prodh, cstack
  3051 ;; Tracked objects:
  3052 ;;		On entry : 0/0
  3053 ;;		On exit  : 0/0
  3054 ;;		Unchanged: 0/0
  3055 ;; Data sizes:     COMRAM   BANK0   BANK1   BANK2   BANK3   BANK4   BANK5   BANK6   BANK7   BANK8   BANK9  BANK10  BANK1
      +1  BANK12  BANK13  BANK14
  3056 ;;      Params:         0       0       0       0       0       0       0       0       0       0       0       0       
      +0       0       0       0
  3057 ;;      Locals:         0       0       0       0       0       0       0       0       0       0       0       0       
      +0       0       0       0
  3058 ;;      Temps:         10       0       0       0       0       0       0       0       0       0       0       0       
      +0       0       0       0
  3059 ;;      Totals:        10       0       0       0       0       0       0       0       0       0       0       0       
      +0       0       0       0
  3060 ;;Total ram usage:       10 bytes
  3061 ;; Hardware stack levels used:    1
  3062 ;; Hardware stack levels required when called:    9
  3063 ;; This function calls:
  3064 ;;		_USBDeviceTasks
  3065 ;; This function is called by:
  3066 ;;		Interrupt level 2
  3067 ;; This function uses a non-reentrant model
  3068 ;;
  3069                           
  3070                           	psect	intcode
  3071  000008                     __pintcode:
  3072                           	opt callstack 0
  3073  000008                     _SYS_InterruptHigh:
  3074                           	opt callstack 18
  3075                           
  3076                           ; BSR set to: 0
  3077                           ;incstack = 0
  3078  000008  8251               	bsf	btemp,1,c	;set compiler interrupt flag (level 2)
  3079  00000A  CFE1 F020          	movff	fsr1l,??_SYS_InterruptHigh
  3080  00000E  CFE2 F021          	movff	fsr1h,??_SYS_InterruptHigh+1
  3081  000012  CFD9 F022          	movff	fsr2l,??_SYS_InterruptHigh+2
  3082  000016  CFDA F023          	movff	fsr2h,??_SYS_InterruptHigh+3
  3083  00001A  CFF3 F024          	movff	prodl,??_SYS_InterruptHigh+4
  3084  00001E  CFF4 F025          	movff	prodh,??_SYS_InterruptHigh+5
  3085  000022  CFF6 F026          	movff	tblptrl,??_SYS_InterruptHigh+6
  3086  000026  CFF7 F027          	movff	tblptrh,??_SYS_InterruptHigh+7
  3087  00002A  CFF8 F028          	movff	tblptru,??_SYS_InterruptHigh+8
  3088  00002E  CFF5 F029          	movff	tablat,??_SYS_InterruptHigh+9
  3089                           
  3090                           ;system.c: 117:         USBDeviceTasks();
  3091  000032  ECD1  F009         	call	_USBDeviceTasks	;wreg free
  3092  000036  C029  FFF5         	movff	??_SYS_InterruptHigh+9,tablat
  3093  00003A  C028  FFF8         	movff	??_SYS_InterruptHigh+8,tblptru
  3094  00003E  C027  FFF7         	movff	??_SYS_InterruptHigh+7,tblptrh
  3095  000042  C026  FFF6         	movff	??_SYS_InterruptHigh+6,tblptrl
  3096  000046  C025  FFF4         	movff	??_SYS_InterruptHigh+5,prodh
  3097  00004A  C024  FFF3         	movff	??_SYS_InterruptHigh+4,prodl
  3098  00004E  C023  FFDA         	movff	??_SYS_InterruptHigh+3,fsr2h
  3099  000052  C022  FFD9         	movff	??_SYS_InterruptHigh+2,fsr2l
  3100  000056  C021  FFE2         	movff	??_SYS_InterruptHigh+1,fsr1h
  3101  00005A  C020  FFE1         	movff	??_SYS_InterruptHigh,fsr1l
  3102  00005E  9251               	bcf	btemp,1,c	;clear compiler interrupt flag (level 2)
  3103  000060  0011               	retfie		f
  3104  000062                     __end_of_SYS_InterruptHigh:
  3105                           	opt callstack 0
  3106                           
  3107 ;; *************** function _USBDeviceTasks *****************
  3108 ;; Defined at:
  3109 ;;		line 481 in file "../../../../../../framework/usb/src/usb_device.c"
  3110 ;; Parameters:    Size  Location     Type
  3111 ;;		None
  3112 ;; Auto vars:     Size  Location     Type
  3113 ;;  i               1   30[COMRAM] unsigned char 
  3114 ;; Return value:  Size  Location     Type
  3115 ;;                  1    wreg      void 
  3116 ;; Registers used:
  3117 ;;		wreg, fsr1l, fsr1h, fsr2l, fsr2h, status,2, status,0, tblptrl, tblptrh, tblptru, prodl, prodh, cstack
  3118 ;; Tracked objects:
  3119 ;;		On entry : 0/0
  3120 ;;		On exit  : 0/0
  3121 ;;		Unchanged: 0/0
  3122 ;; Data sizes:     COMRAM   BANK0   BANK1   BANK2   BANK3   BANK4   BANK5   BANK6   BANK7   BANK8   BANK9  BANK10  BANK1
      +1  BANK12  BANK13  BANK14
  3123 ;;      Params:         0       0       0       0       0       0       0       0       0       0       0       0       
      +0       0       0       0
  3124 ;;      Locals:         1       0       0       0       0       0       0       0       0       0       0       0       
      +0       0       0       0
  3125 ;;      Temps:          0       0       0       0       0       0       0       0       0       0       0       0       
      +0       0       0       0
  3126 ;;      Totals:         1       0       0       0       0       0       0       0       0       0       0       0       
      +0       0       0       0
  3127 ;;Total ram usage:        1 bytes
  3128 ;; Hardware stack levels used:    1
  3129 ;; Hardware stack levels required when called:    8
  3130 ;; This function calls:
  3131 ;;		_USBCtrlEPAllowStatusStage
  3132 ;;		_USBCtrlEPService
  3133 ;;		_USBIncrement1msInternalTimers
  3134 ;;		_USBStallHandler
  3135 ;;		_USBSuspend
  3136 ;;		_USBWakeFromSuspend
  3137 ;;		_USER_USB_CALLBACK_EVENT_HANDLER
  3138 ;;		i2_USBDeviceInit
  3139 ;; This function is called by:
  3140 ;;		_SYS_InterruptHigh
  3141 ;; This function uses a non-reentrant model
  3142 ;;
  3143                           
  3144                           	psect	text15
  3145  0013A2                     __ptext15:
  3146                           	opt callstack 0
  3147  0013A2                     _USBDeviceTasks:
  3148                           	opt callstack 18
  3149                           
  3150                           ;../../../../../../framework/usb/src/usb_device.c: 483:     uint8_t i;;../../../../../..
      +                          /framework/usb/src/usb_device.c: 594:     if(USBDeviceState == ATTACHED_STATE)
  3151                           
  3152                           ;incstack = 0
  3153  0013A2  0445               	decf	_USBDeviceState,w,c	;volatile
  3154  0013A4  B4D8               	btfsc	status,2,c
  3155                           
  3156                           ;../../../../../../framework/usb/src/usb_device.c: 595:     {;../../../../../../framewor
      +                          k/usb/src/usb_device.c: 605:         if(!UCONbits.SE0)
  3157  0013A6  BA65               	btfsc	3941,5,c	;volatile
  3158  0013A8  D007               	goto	i2l4609
  3159                           
  3160                           ;../../../../../../framework/usb/src/usb_device.c: 606:         {;../../../../../../fram
      +                          ework/usb/src/usb_device.c: 612:                 {UIR = 0;};
  3161  0013AA  0E00               	movlw	0
  3162  0013AC  6E62               	movwf	3938,c	;volatile
  3163                           
  3164                           ;../../../../../../framework/usb/src/usb_device.c: 618:             UIEbits.URSTIE = 1;
  3165  0013AE  010F               	movlb	15	; () banked
  3166  0013B0  8136               	bsf	54,0,b	;volatile
  3167                           
  3168                           ; BSR set to: 15
  3169                           ;../../../../../../framework/usb/src/usb_device.c: 619:             UIEbits.IDLEIE = 1;
  3170  0013B2  8936               	bsf	54,4,b	;volatile
  3171                           
  3172                           ;../../../../../../framework/usb/src/usb_device.c: 620:             USBDeviceState = POW
      +                          ERED_STATE;
  3173  0013B4  0E02               	movlw	2
  3174  0013B6  6E45               	movwf	_USBDeviceState,c	;volatile
  3175  0013B8                     i2l4609:
  3176                           
  3177                           ;../../../../../../framework/usb/src/usb_device.c: 638:     if(UIRbits.ACTVIF && UIEbits
      +                          .ACTVIE)
  3178  0013B8  A462               	btfss	3938,2,c	;volatile
  3179  0013BA  D006               	goto	i2l4617
  3180  0013BC  010F               	movlb	15	; () banked
  3181  0013BE  A536               	btfss	54,2,b	;volatile
  3182  0013C0  D003               	goto	i2l4617
  3183                           
  3184                           ; BSR set to: 15
  3185                           ;../../../../../../framework/usb/src/usb_device.c: 639:     {;../../../../../../framewor
      +                          k/usb/src/usb_device.c: 640:         (UIR &= 0xFB);
  3186  0013C2  9462               	bcf	3938,2,c	;volatile
  3187                           
  3188                           ; BSR set to: 15
  3189                           ;../../../../../../framework/usb/src/usb_device.c: 644:             USBWakeFromSuspend()
      +                          ;
  3190  0013C4  EC5A  F016         	call	_USBWakeFromSuspend	;wreg free
  3191  0013C8                     i2l4617:
  3192                           
  3193                           ;../../../../../../framework/usb/src/usb_device.c: 651:     if(UCONbits.SUSPND==1)
  3194  0013C8  A265               	btfss	3941,1,c	;volatile
  3195  0013CA  D002               	goto	i2l215
  3196                           
  3197                           ;../../../../../../framework/usb/src/usb_device.c: 652:     {;../../../../../../framewor
      +                          k/usb/src/usb_device.c: 653:         {PIR2bits.USBIF = 0;};
  3198  0013CC  98A1               	bcf	4001,4,c	;volatile
  3199                           
  3200                           ;../../../../../../framework/usb/src/usb_device.c: 654:         return;
  3201  0013CE  0012               	return	
  3202  0013D0                     i2l215:
  3203                           
  3204                           ;../../../../../../framework/usb/src/usb_device.c: 667:     if(UIRbits.URSTIF && UIEbits
      +                          .URSTIE)
  3205  0013D0  A062               	btfss	3938,0,c	;volatile
  3206  0013D2  D009               	goto	i2l4631
  3207  0013D4  010F               	movlb	15	; () banked
  3208  0013D6  A136               	btfss	54,0,b	;volatile
  3209  0013D8  D006               	goto	i2l4631
  3210                           
  3211                           ; BSR set to: 15
  3212                           ;../../../../../../framework/usb/src/usb_device.c: 668:     {;../../../../../../framewor
      +                          k/usb/src/usb_device.c: 669:         USBDeviceInit();
  3213  0013DA  ECA5  F00B         	call	i2_USBDeviceInit	;wreg free
  3214                           
  3215                           ;../../../../../../framework/usb/src/usb_device.c: 673:         {PIE2bits.USBIE = 1;};
  3216  0013DE  88A0               	bsf	4000,4,c	;volatile
  3217                           
  3218                           ;../../../../../../framework/usb/src/usb_device.c: 675:         USBDeviceState = DEFAULT
      +                          _STATE;
  3219  0013E0  0E04               	movlw	4
  3220  0013E2  6E45               	movwf	_USBDeviceState,c	;volatile
  3221                           
  3222                           ;../../../../../../framework/usb/src/usb_device.c: 685:         (UIR &= 0xFE);
  3223  0013E4  9062               	bcf	3938,0,c	;volatile
  3224  0013E6                     i2l4631:
  3225                           
  3226                           ;../../../../../../framework/usb/src/usb_device.c: 691:     if(UIRbits.IDLEIF && UIEbits
      +                          .IDLEIE)
  3227  0013E6  A862               	btfss	3938,4,c	;volatile
  3228  0013E8  D004               	goto	i2l4637
  3229  0013EA  010F               	movlb	15	; () banked
  3230  0013EC  B936               	btfsc	54,4,b	;volatile
  3231                           
  3232                           ; BSR set to: 15
  3233                           ;../../../../../../framework/usb/src/usb_device.c: 692:     {;../../../../../../framewor
      +                          k/usb/src/usb_device.c: 698:             USBSuspend();
  3234  0013EE  ECEC  F016         	call	_USBSuspend	;wreg free
  3235  0013F2                     i2l4637:
  3236                           
  3237                           ;../../../../../../framework/usb/src/usb_device.c: 712:     if(UIRbits.SOFIF)
  3238  0013F2  AC62               	btfss	3938,6,c	;volatile
  3239  0013F4  D01B               	goto	i2l4655
  3240                           
  3241                           ;../../../../../../framework/usb/src/usb_device.c: 713:     {;../../../../../../framewor
      +                          k/usb/src/usb_device.c: 715:         if(UIEbits.SOFIE)
  3242  0013F6  010F               	movlb	15	; () banked
  3243  0013F8  AD36               	btfss	54,6,b	;volatile
  3244  0013FA  D00E               	goto	i2l4643
  3245                           
  3246                           ; BSR set to: 15
  3247                           ;../../../../../../framework/usb/src/usb_device.c: 716:         {;../../../../../../fram
      +                          ework/usb/src/usb_device.c: 717:             USER_USB_CALLBACK_EVENT_HANDLER((USB_EVENT)
      +                          EVENT_SOF,0,1);
  3248  0013FC  0E00               	movlw	0
  3249  0013FE  6E0E               	movwf	USER_USB_CALLBACK_EVENT_HANDLER@event+1,c
  3250  001400  0E73               	movlw	115
  3251  001402  6E0D               	movwf	USER_USB_CALLBACK_EVENT_HANDLER@event,c
  3252  001404  0E00               	movlw	0
  3253  001406  6E0F               	movwf	USER_USB_CALLBACK_EVENT_HANDLER@pdata,c
  3254  001408  0E00               	movlw	0
  3255  00140A  6E10               	movwf	USER_USB_CALLBACK_EVENT_HANDLER@pdata+1,c
  3256  00140C  0E00               	movlw	0
  3257  00140E  6E12               	movwf	USER_USB_CALLBACK_EVENT_HANDLER@size+1,c
  3258  001410  0E01               	movlw	1
  3259  001412  6E11               	movwf	USER_USB_CALLBACK_EVENT_HANDLER@size,c
  3260  001414  EC65  F014         	call	_USER_USB_CALLBACK_EVENT_HANDLER	;wreg free
  3261  001418                     i2l4643:
  3262                           
  3263                           ;../../../../../../framework/usb/src/usb_device.c: 719:         (UIR &= 0xBF);
  3264  001418  9C62               	bcf	3938,6,c	;volatile
  3265                           
  3266                           ;../../../../../../framework/usb/src/usb_device.c: 722:             USBIncrement1msInter
      +                          nalTimers();
  3267  00141A  EC3B  F017         	call	_USBIncrement1msInternalTimers	;wreg free
  3268                           
  3269                           ;../../../../../../framework/usb/src/usb_device.c: 739:             if(USBStatusStageTim
      +                          eoutCounter != 0u)
  3270  00141E  503E               	movf	_USBStatusStageTimeoutCounter,w,c	;volatile
  3271  001420  A4D8               	btfss	status,2,c
  3272                           
  3273                           ;../../../../../../framework/usb/src/usb_device.c: 740:             {;../../../../../../
      +                          framework/usb/src/usb_device.c: 741:                 USBStatusStageTimeoutCounter--;
  3274  001422  063E               	decf	_USBStatusStageTimeoutCounter,f,c	;volatile
  3275                           
  3276                           ;../../../../../../framework/usb/src/usb_device.c: 748:             if(USBStatusStageTim
      +                          eoutCounter == 0)
  3277  001424  503E               	movf	_USBStatusStageTimeoutCounter,w,c	;volatile
  3278  001426  B4D8               	btfsc	status,2,c
  3279                           
  3280                           ;../../../../../../framework/usb/src/usb_device.c: 749:             {;../../../../../../
      +                          framework/usb/src/usb_device.c: 750:                 USBCtrlEPAllowStatusStage();
  3281  001428  EC1D  F011         	call	_USBCtrlEPAllowStatusStage	;wreg free
  3282  00142C                     i2l4655:
  3283                           
  3284                           ;../../../../../../framework/usb/src/usb_device.c: 755:     if(UIRbits.STALLIF && UIEbit
      +                          s.STALLIE)
  3285  00142C  AA62               	btfss	3938,5,c	;volatile
  3286  00142E  D004               	goto	i2l4661
  3287  001430  010F               	movlb	15	; () banked
  3288  001432  BB36               	btfsc	54,5,b	;volatile
  3289                           
  3290                           ; BSR set to: 15
  3291                           ;../../../../../../framework/usb/src/usb_device.c: 756:     {;../../../../../../framewor
      +                          k/usb/src/usb_device.c: 757:         USBStallHandler();
  3292  001434  ECC5  F015         	call	_USBStallHandler	;wreg free
  3293  001438                     i2l4661:
  3294                           
  3295                           ;../../../../../../framework/usb/src/usb_device.c: 760:     if(UIRbits.UERRIF && UIEbits
      +                          .UERRIE)
  3296  001438  A262               	btfss	3938,1,c	;volatile
  3297  00143A  D012               	goto	i2l4669
  3298  00143C  010F               	movlb	15	; () banked
  3299  00143E  A336               	btfss	54,1,b	;volatile
  3300  001440  D00F               	goto	i2l4669
  3301                           
  3302                           ; BSR set to: 15
  3303                           ;../../../../../../framework/usb/src/usb_device.c: 761:     {;../../../../../../framewor
      +                          k/usb/src/usb_device.c: 762:         USER_USB_CALLBACK_EVENT_HANDLER((USB_EVENT)EVENT_BU
      +                          S_ERROR,0,1);
  3304  001442  0E7F               	movlw	127
  3305  001444  6E0E               	movwf	USER_USB_CALLBACK_EVENT_HANDLER@event+1,c
  3306  001446  680D               	setf	USER_USB_CALLBACK_EVENT_HANDLER@event,c
  3307  001448  0E00               	movlw	0
  3308  00144A  6E0F               	movwf	USER_USB_CALLBACK_EVENT_HANDLER@pdata,c
  3309  00144C  0E00               	movlw	0
  3310  00144E  6E10               	movwf	USER_USB_CALLBACK_EVENT_HANDLER@pdata+1,c
  3311  001450  0E00               	movlw	0
  3312  001452  6E12               	movwf	USER_USB_CALLBACK_EVENT_HANDLER@size+1,c
  3313  001454  0E01               	movlw	1
  3314  001456  6E11               	movwf	USER_USB_CALLBACK_EVENT_HANDLER@size,c
  3315  001458  EC65  F014         	call	_USER_USB_CALLBACK_EVENT_HANDLER	;wreg free
  3316                           
  3317                           ;../../../../../../framework/usb/src/usb_device.c: 763:         {UEIR = 0;};
  3318  00145C  0E00               	movlw	0
  3319  00145E  6E63               	movwf	3939,c	;volatile
  3320  001460                     i2l4669:
  3321                           
  3322                           ;../../../../../../framework/usb/src/usb_device.c: 778:     if(USBDeviceState < DEFAULT_
      +                          STATE)
  3323  001460  0E04               	movlw	4
  3324  001462  6045               	cpfslt	_USBDeviceState,c	;volatile
  3325  001464  D002               	goto	i2l225
  3326                           
  3327                           ;../../../../../../framework/usb/src/usb_device.c: 779:     {;../../../../../../framewor
      +                          k/usb/src/usb_device.c: 780:         {PIR2bits.USBIF = 0;};
  3328  001466  98A1               	bcf	4001,4,c	;volatile
  3329                           
  3330                           ;../../../../../../framework/usb/src/usb_device.c: 781:         return;
  3331  001468  0012               	return	
  3332  00146A                     i2l225:
  3333                           
  3334                           ;../../../../../../framework/usb/src/usb_device.c: 787:     if(UIEbits.TRNIE)
  3335  00146A  010F               	movlb	15	; () banked
  3336  00146C  A736               	btfss	54,3,b	;volatile
  3337  00146E  D034               	goto	i2u340_40
  3338                           
  3339                           ; BSR set to: 15
  3340                           ;../../../../../../framework/usb/src/usb_device.c: 788:     {;../../../../../../framewor
      +                          k/usb/src/usb_device.c: 789:         for(i = 0; i < 4u; i++)
  3341  001470  0E00               	movlw	0
  3342  001472  6E1F               	movwf	USBDeviceTasks@i,c
  3343  001474                     i2l227:
  3344                           
  3345                           ;../../../../../../framework/usb/src/usb_device.c: 790:         {;../../../../../../fram
      +                          ework/usb/src/usb_device.c: 791:             if(UIRbits.TRNIF)
  3346  001474  A662               	btfss	3938,3,c	;volatile
  3347  001476  D030               	goto	i2u340_40
  3348                           
  3349                           ;../../../../../../framework/usb/src/usb_device.c: 792:             {;../../../../../../
      +                          framework/usb/src/usb_device.c: 794:                 USTATcopy.Val = USTAT;
  3350  001478  CF64 F04F          	movff	3940,_USTATcopy	;volatile
  3351                           
  3352                           ;../../../../../../framework/usb/src/usb_device.c: 795:                 endpoint_number 
      +                          = USTATcopy.endpoint_number;
  3353  00147C  304F               	rrcf	_USTATcopy,w,c	;volatile
  3354  00147E  32E8               	rrcf	wreg,f,c
  3355  001480  32E8               	rrcf	wreg,f,c
  3356  001482  0B0F               	andlw	15
  3357  001484  6E40               	movwf	_endpoint_number,c	;volatile
  3358                           
  3359                           ;../../../../../../framework/usb/src/usb_device.c: 797:                 (UIR &= 0xF7);
  3360  001486  9662               	bcf	3938,3,c	;volatile
  3361                           
  3362                           ;../../../../../../framework/usb/src/usb_device.c: 802:                 if(USTATcopy.dir
      +                          ection == 0)
  3363  001488  B44F               	btfsc	_USTATcopy,2,c	;volatile
  3364  00148A  D006               	goto	i2l4689
  3365                           
  3366                           ;../../../../../../framework/usb/src/usb_device.c: 803:                 {;../../../../..
      +                          /../framework/usb/src/usb_device.c: 804:                     ep_data_out[endpoint_number
      +                          ].bits.ping_pong_state ^= 1;
  3367  00148C  0E8E               	movlw	low _ep_data_out
  3368  00148E  2440               	addwf	_endpoint_number,w,c	;volatile
  3369  001490  6ED9               	movwf	fsr2l,c
  3370  001492  6ADA               	clrf	fsr2h,c
  3371  001494  0E00               	movlw	high _ep_data_out
  3372  001496  D005               	goto	L5
  3373  001498                     i2l4689:
  3374                           
  3375                           ;../../../../../../framework/usb/src/usb_device.c: 807:                 {;../../../../..
      +                          /../framework/usb/src/usb_device.c: 808:                     ep_data_in[endpoint_number]
      +                          .bits.ping_pong_state ^= 1;
  3376  001498  0E91               	movlw	low _ep_data_in
  3377  00149A  2440               	addwf	_endpoint_number,w,c	;volatile
  3378  00149C  6ED9               	movwf	fsr2l,c
  3379  00149E  6ADA               	clrf	fsr2h,c
  3380  0014A0  0E00               	movlw	high _ep_data_in
  3381  0014A2                     L5:
  3382  0014A2  22DA               	addwfc	fsr2h,f,c
  3383  0014A4  0100               	movlb	0	; () banked
  3384  0014A6  70DF               	btg	indf2,0,c
  3385                           
  3386                           ; BSR set to: 0
  3387                           ;../../../../../../framework/usb/src/usb_device.c: 814:                 if(endpoint_numb
      +                          er == 0)
  3388  0014A8  5040               	movf	_endpoint_number,w,c	;volatile
  3389  0014AA  A4D8               	btfss	status,2,c
  3390  0014AC  D003               	goto	i2l4695
  3391                           
  3392                           ; BSR set to: 0
  3393                           ;../../../../../../framework/usb/src/usb_device.c: 815:                 {;../../../../..
      +                          /../framework/usb/src/usb_device.c: 816:                     USBCtrlEPService();
  3394  0014AE  EC3F  F013         	call	_USBCtrlEPService	;wreg free
  3395                           
  3396                           ;../../../../../../framework/usb/src/usb_device.c: 817:                 }
  3397  0014B2  D00E               	goto	i2l4697
  3398  0014B4                     i2l4695:
  3399                           
  3400                           ; BSR set to: 0
  3401                           ;../../../../../../framework/usb/src/usb_device.c: 819:                 {;../../../../..
      +                          /../framework/usb/src/usb_device.c: 820:                     USER_USB_CALLBACK_EVENT_HAN
      +                          DLER((USB_EVENT)EVENT_TRANSFER,(uint8_t*)&USTATcopy.Val,0);
  3402  0014B4  0E00               	movlw	0
  3403  0014B6  6E0E               	movwf	USER_USB_CALLBACK_EVENT_HANDLER@event+1,c
  3404  0014B8  0E72               	movlw	114
  3405  0014BA  6E0D               	movwf	USER_USB_CALLBACK_EVENT_HANDLER@event,c
  3406  0014BC  0E4F               	movlw	low _USTATcopy
  3407  0014BE  6E0F               	movwf	USER_USB_CALLBACK_EVENT_HANDLER@pdata,c
  3408  0014C0  0E00               	movlw	high _USTATcopy
  3409  0014C2  6E10               	movwf	USER_USB_CALLBACK_EVENT_HANDLER@pdata+1,c
  3410  0014C4  0E00               	movlw	0
  3411  0014C6  6E12               	movwf	USER_USB_CALLBACK_EVENT_HANDLER@size+1,c
  3412  0014C8  0E00               	movlw	0
  3413  0014CA  6E11               	movwf	USER_USB_CALLBACK_EVENT_HANDLER@size,c
  3414  0014CC  EC65  F014         	call	_USER_USB_CALLBACK_EVENT_HANDLER	;wreg free
  3415  0014D0                     i2l4697:
  3416                           
  3417                           ;../../../../../../framework/usb/src/usb_device.c: 827:         }
  3418  0014D0  2A1F               	incf	USBDeviceTasks@i,f,c
  3419  0014D2  0E03               	movlw	3
  3420  0014D4  641F               	cpfsgt	USBDeviceTasks@i,c
  3421  0014D6  D7CE               	goto	i2l227
  3422  0014D8                     i2u340_40:
  3423                           
  3424                           ;../../../../../../framework/usb/src/usb_device.c: 830:     {PIR2bits.USBIF = 0;};
  3425                           
  3426                           ;../../../../../../framework/usb/src/usb_device.c: 828:     }
  3427  0014D8  98A1               	bcf	4001,4,c	;volatile
  3428  0014DA  0012               	return		;funcret
  3429  0014DC                     __end_of_USBDeviceTasks:
  3430                           	opt callstack 0
  3431                           
  3432 ;; *************** function i2_USBDeviceInit *****************
  3433 ;; Defined at:
  3434 ;;		line 281 in file "../../../../../../framework/usb/src/usb_device.c"
  3435 ;; Parameters:    Size  Location     Type
  3436 ;;		None
  3437 ;; Auto vars:     Size  Location     Type
  3438 ;;  USBDeviceIni    1   12[COMRAM] unsigned char 
  3439 ;; Return value:  Size  Location     Type
  3440 ;;                  1    wreg      void 
  3441 ;; Registers used:
  3442 ;;		wreg, fsr2l, fsr2h, status,2, status,0, prodl, prodh, cstack
  3443 ;; Tracked objects:
  3444 ;;		On entry : 0/0
  3445 ;;		On exit  : 0/0
  3446 ;;		Unchanged: 0/0
  3447 ;; Data sizes:     COMRAM   BANK0   BANK1   BANK2   BANK3   BANK4   BANK5   BANK6   BANK7   BANK8   BANK9  BANK10  BANK1
      +1  BANK12  BANK13  BANK14
  3448 ;;      Params:         0       0       0       0       0       0       0       0       0       0       0       0       
      +0       0       0       0
  3449 ;;      Locals:         1       0       0       0       0       0       0       0       0       0       0       0       
      +0       0       0       0
  3450 ;;      Temps:          0       0       0       0       0       0       0       0       0       0       0       0       
      +0       0       0       0
  3451 ;;      Totals:         1       0       0       0       0       0       0       0       0       0       0       0       
      +0       0       0       0
  3452 ;;Total ram usage:        1 bytes
  3453 ;; Hardware stack levels used:    1
  3454 ;; Hardware stack levels required when called:    1
  3455 ;; This function calls:
  3456 ;;		i2_memset
  3457 ;; This function is called by:
  3458 ;;		_USBDeviceTasks
  3459 ;; This function uses a non-reentrant model
  3460 ;;
  3461                           
  3462                           	psect	text16
  3463  00174A                     __ptext16:
  3464                           	opt callstack 0
  3465  00174A                     i2_USBDeviceInit:
  3466                           	opt callstack 24
  3467                           
  3468                           ;../../../../../../framework/usb/src/usb_device.c: 283:     uint8_t i;;../../../../../..
      +                          /framework/usb/src/usb_device.c: 285:     {PIE2bits.USBIE = 0;};
  3469                           
  3470                           ;incstack = 0
  3471  00174A  98A0               	bcf	4000,4,c	;volatile
  3472                           
  3473                           ;../../../../../../framework/usb/src/usb_device.c: 292:     {UEIR = 0;};
  3474  00174C  0E00               	movlw	0
  3475  00174E  6E63               	movwf	3939,c	;volatile
  3476                           
  3477                           ;../../../../../../framework/usb/src/usb_device.c: 295:     {UIR = 0;};
  3478  001750  0E00               	movlw	0
  3479  001752  6E62               	movwf	3938,c	;volatile
  3480                           
  3481                           ;../../../../../../framework/usb/src/usb_device.c: 298:     UEP0 = 0;
  3482  001754  0E00               	movlw	0
  3483  001756  010F               	movlb	15	; () banked
  3484  001758  6F26               	movwf	38,b	;volatile
  3485                           
  3486                           ; BSR set to: 15
  3487                           ;../../../../../../framework/usb/src/usb_device.c: 300:     memset((void*)&UEP1,0x00,(2)
      +                          );;
  3488  00175A  0E27               	movlw	39
  3489  00175C  6E01               	movwf	i2memset@dest,c
  3490  00175E  0E0F               	movlw	15
  3491  001760  6E02               	movwf	i2memset@dest+1,c
  3492  001762  0E00               	movlw	0
  3493  001764  6E04               	movwf	i2memset@c+1,c
  3494  001766  0E00               	movlw	0
  3495  001768  6E03               	movwf	i2memset@c,c
  3496  00176A  0E00               	movlw	0
  3497  00176C  6E06               	movwf	i2memset@n+1,c
  3498  00176E  0E02               	movlw	2
  3499  001770  6E05               	movwf	i2memset@n,c
  3500  001772  EC3F  F00C         	call	i2_memset	;wreg free
  3501                           
  3502                           ;../../../../../../framework/usb/src/usb_device.c: 302:     { UCFG = 0x10 | 0x00 | 0x04 
      +                          | 0x02; UEIE = 0x9F; UIE = 0x39 | 0x40 | 0x02; };
  3503  001776  0E16               	movlw	22
  3504  001778  010F               	movlb	15	; () banked
  3505  00177A  6F39               	movwf	57,b	;volatile
  3506                           
  3507                           ; BSR set to: 15
  3508  00177C  0E9F               	movlw	159
  3509  00177E  6F37               	movwf	55,b	;volatile
  3510                           
  3511                           ; BSR set to: 15
  3512  001780  0E7B               	movlw	123
  3513  001782  6F36               	movwf	54,b	;volatile
  3514                           
  3515                           ; BSR set to: 15
  3516                           ;../../../../../../framework/usb/src/usb_device.c: 311:     for(i = 0; i < (sizeof(BDT)/
      +                          sizeof(BDT_ENTRY)); i++)
  3517  001784  0E00               	movlw	0
  3518  001786  6E0D               	movwf	i2USBDeviceInit@i,c
  3519  001788                     i2l4465:
  3520                           
  3521                           ;../../../../../../framework/usb/src/usb_device.c: 312:     {;../../../../../../framewor
      +                          k/usb/src/usb_device.c: 313:         BDT[i].Val = 0x00;
  3522  001788  500D               	movf	i2USBDeviceInit@i,w,c
  3523  00178A  0D04               	mullw	4
  3524  00178C  0E00               	movlw	0
  3525  00178E  24F3               	addwf	prodl,w,c
  3526  001790  6ED9               	movwf	fsr2l,c
  3527  001792  0E04               	movlw	4
  3528  001794  20F4               	addwfc	prodh,w,c
  3529  001796  6EDA               	movwf	fsr2h,c
  3530  001798  6ADE               	clrf	postinc2,c
  3531  00179A  6ADE               	clrf	postinc2,c
  3532  00179C  6ADE               	clrf	postinc2,c
  3533  00179E  6ADD               	clrf	postdec2,c
  3534                           
  3535                           ;../../../../../../framework/usb/src/usb_device.c: 314:     }
  3536  0017A0  2A0D               	incf	i2USBDeviceInit@i,f,c
  3537  0017A2  0E0B               	movlw	11
  3538  0017A4  640D               	cpfsgt	i2USBDeviceInit@i,c
  3539  0017A6  D7F0               	goto	i2l4465
  3540                           
  3541                           ;../../../../../../framework/usb/src/usb_device.c: 317:     UCONbits.PPBRST = 1;
  3542  0017A8  8C65               	bsf	3941,6,c	;volatile
  3543                           
  3544                           ;../../../../../../framework/usb/src/usb_device.c: 320:     UADDR = 0x00;
  3545  0017AA  0E00               	movlw	0
  3546  0017AC  010F               	movlb	15	; () banked
  3547  0017AE  6F38               	movwf	56,b	;volatile
  3548                           
  3549                           ; BSR set to: 15
  3550                           ;../../../../../../framework/usb/src/usb_device.c: 323:     UCONbits.PKTDIS = 0;
  3551  0017B0  9865               	bcf	3941,4,c	;volatile
  3552                           
  3553                           ; BSR set to: 15
  3554                           ;../../../../../../framework/usb/src/usb_device.c: 326:     UCONbits.PPBRST = 0;
  3555  0017B2  9C65               	bcf	3941,6,c	;volatile
  3556  0017B4                     i2l4477:
  3557                           
  3558                           ;../../../../../../framework/usb/src/usb_device.c: 330:     {;../../../../../../framewor
      +                          k/usb/src/usb_device.c: 331:         (UIR &= 0xF7);
  3559  0017B4  9662               	bcf	3938,3,c	;volatile
  3560                           
  3561                           ;../../../../../../framework/usb/src/usb_device.c: 333:         inPipes[0].info.Val = 0;
  3562  0017B6  0E00               	movlw	0
  3563  0017B8  0100               	movlb	0	; () banked
  3564  0017BA  6F75               	movwf	(_inPipes+3)& (0+255),b	;volatile
  3565                           
  3566                           ; BSR set to: 0
  3567                           ;../../../../../../framework/usb/src/usb_device.c: 334:         outPipes[0].info.Val = 0
      +                          ;
  3568  0017BC  0E00               	movlw	0
  3569  0017BE  6F6D               	movwf	(_outPipes+3)& (0+255),b	;volatile
  3570                           
  3571                           ; BSR set to: 0
  3572                           ;../../../../../../framework/usb/src/usb_device.c: 335:         outPipes[0].wCount.Val =
      +                           0;
  3573  0017C0  0E00               	movlw	0
  3574  0017C2  6F6F               	movwf	(_outPipes+5)& (0+255),b	;volatile
  3575  0017C4  0E00               	movlw	0
  3576  0017C6  6F6E               	movwf	(_outPipes+4)& (0+255),b	;volatile
  3577                           
  3578                           ; BSR set to: 0
  3579                           ;../../../../../../framework/usb/src/usb_device.c: 336:     }while(UIRbits.TRNIF == 1);
  3580  0017C8  B662               	btfsc	3938,3,c	;volatile
  3581  0017CA  D7F4               	goto	i2l4477
  3582                           
  3583                           ; BSR set to: 0
  3584                           ;../../../../../../framework/usb/src/usb_device.c: 340:     USBStatusStageEnabledFlag1 =
      +                           1;
  3585  0017CC  0E01               	movlw	1
  3586  0017CE  6E3C               	movwf	_USBStatusStageEnabledFlag1,c	;volatile
  3587                           
  3588                           ;../../../../../../framework/usb/src/usb_device.c: 341:     USBStatusStageEnabledFlag2 =
      +                           1;
  3589  0017D0  0E01               	movlw	1
  3590  0017D2  6E3B               	movwf	_USBStatusStageEnabledFlag2,c	;volatile
  3591                           
  3592                           ;../../../../../../framework/usb/src/usb_device.c: 343:     USBDeferINDataStagePackets =
      +                           0;
  3593  0017D4  0E00               	movlw	0
  3594  0017D6  6E3A               	movwf	_USBDeferINDataStagePackets,c	;volatile
  3595                           
  3596                           ;../../../../../../framework/usb/src/usb_device.c: 344:     USBDeferOUTDataStagePackets 
      +                          = 0;
  3597  0017D8  0E00               	movlw	0
  3598  0017DA  6E39               	movwf	_USBDeferOUTDataStagePackets,c	;volatile
  3599                           
  3600                           ;../../../../../../framework/usb/src/usb_device.c: 345:     USBBusIsSuspended = 0;
  3601  0017DC  0E00               	movlw	0
  3602  0017DE  6E41               	movwf	_USBBusIsSuspended,c	;volatile
  3603                           
  3604                           ;../../../../../../framework/usb/src/usb_device.c: 349:     for(i = 0; i < (uint8_t)(2 +
      +                          1u); i++)
  3605  0017E0  0E00               	movlw	0
  3606  0017E2  6E0D               	movwf	i2USBDeviceInit@i,c
  3607  0017E4                     i2l4493:
  3608                           
  3609                           ;../../../../../../framework/usb/src/usb_device.c: 350:     {;../../../../../../framewor
      +                          k/usb/src/usb_device.c: 351:         pBDTEntryIn[i] = 0u;
  3610  0017E4  500D               	movf	i2USBDeviceInit@i,w,c
  3611  0017E6  0D02               	mullw	2
  3612  0017E8  0E78               	movlw	low _pBDTEntryIn
  3613  0017EA  24F3               	addwf	prodl,w,c
  3614  0017EC  6ED9               	movwf	fsr2l,c
  3615  0017EE  0E00               	movlw	high _pBDTEntryIn
  3616  0017F0  20F4               	addwfc	prodh,w,c
  3617  0017F2  6EDA               	movwf	fsr2h,c
  3618  0017F4  0E00               	movlw	0
  3619  0017F6  6EDE               	movwf	postinc2,c
  3620  0017F8  0E00               	movlw	0
  3621  0017FA  6EDD               	movwf	postdec2,c
  3622                           
  3623                           ;../../../../../../framework/usb/src/usb_device.c: 352:         pBDTEntryOut[i] = 0u;
  3624  0017FC  500D               	movf	i2USBDeviceInit@i,w,c
  3625  0017FE  0D02               	mullw	2
  3626  001800  0E7E               	movlw	low _pBDTEntryOut
  3627  001802  24F3               	addwf	prodl,w,c
  3628  001804  6ED9               	movwf	fsr2l,c
  3629  001806  0E00               	movlw	high _pBDTEntryOut
  3630  001808  20F4               	addwfc	prodh,w,c
  3631  00180A  6EDA               	movwf	fsr2h,c
  3632  00180C  0E00               	movlw	0
  3633  00180E  6EDE               	movwf	postinc2,c
  3634  001810  0E00               	movlw	0
  3635  001812  6EDD               	movwf	postdec2,c
  3636                           
  3637                           ;../../../../../../framework/usb/src/usb_device.c: 353:         ep_data_in[i].Val = 0u;
  3638  001814  0E91               	movlw	low _ep_data_in
  3639  001816  240D               	addwf	i2USBDeviceInit@i,w,c
  3640  001818  6ED9               	movwf	fsr2l,c
  3641  00181A  6ADA               	clrf	fsr2h,c
  3642  00181C  0E00               	movlw	high _ep_data_in
  3643  00181E  22DA               	addwfc	fsr2h,f,c
  3644  001820  0E00               	movlw	0
  3645  001822  6EDF               	movwf	indf2,c
  3646                           
  3647                           ;../../../../../../framework/usb/src/usb_device.c: 354:         ep_data_out[i].Val = 0u;
  3648  001824  0E8E               	movlw	low _ep_data_out
  3649  001826  240D               	addwf	i2USBDeviceInit@i,w,c
  3650  001828  6ED9               	movwf	fsr2l,c
  3651  00182A  6ADA               	clrf	fsr2h,c
  3652  00182C  0E00               	movlw	high _ep_data_out
  3653  00182E  22DA               	addwfc	fsr2h,f,c
  3654  001830  0E00               	movlw	0
  3655  001832  6EDF               	movwf	indf2,c
  3656                           
  3657                           ;../../../../../../framework/usb/src/usb_device.c: 355:     }
  3658  001834  2A0D               	incf	i2USBDeviceInit@i,f,c
  3659  001836  0E02               	movlw	2
  3660  001838  640D               	cpfsgt	i2USBDeviceInit@i,c
  3661  00183A  D7D4               	goto	i2l4493
  3662                           
  3663                           ;../../../../../../framework/usb/src/usb_device.c: 358:     pBDTEntryIn[0] = (volatile B
      +                          DT_ENTRY*)&BDT[2];
  3664  00183C  0E08               	movlw	8
  3665  00183E  0100               	movlb	0	; () banked
  3666  001840  6F78               	movwf	_pBDTEntryIn& (0+255),b
  3667  001842  0E04               	movlw	4
  3668  001844  6F79               	movwf	(_pBDTEntryIn+1)& (0+255),b
  3669                           
  3670                           ; BSR set to: 0
  3671                           ;../../../../../../framework/usb/src/usb_device.c: 360:     UEP0 = 0x06|0x10;
  3672  001846  0E16               	movlw	22
  3673  001848  010F               	movlb	15	; () banked
  3674  00184A  6F26               	movwf	38,b	;volatile
  3675                           
  3676                           ; BSR set to: 15
  3677                           ;../../../../../../framework/usb/src/usb_device.c: 362:     BDT[0].ADR = ((uint16_t)(&Se
      +                          tupPkt));
  3678  00184C  0E04               	movlw	4
  3679  00184E  0104               	movlb	4	; () banked
  3680  001850  6F03               	movwf	3,b	;volatile
  3681  001852  0E30               	movlw	48
  3682  001854  6F02               	movwf	2,b	;volatile
  3683                           
  3684                           ; BSR set to: 4
  3685                           ;../../../../../../framework/usb/src/usb_device.c: 363:     BDT[0].CNT = 8;
  3686  001856  0E08               	movlw	8
  3687  001858  6F01               	movwf	1,b	;volatile
  3688                           
  3689                           ; BSR set to: 4
  3690                           ;../../../../../../framework/usb/src/usb_device.c: 364:     BDT[0].STAT.Val = 0x00|0x04;
  3691  00185A  0E04               	movlw	4
  3692  00185C  6F00               	movwf	0,b	;volatile
  3693                           
  3694                           ; BSR set to: 4
  3695                           ;../../../../../../framework/usb/src/usb_device.c: 365:     BDT[0].STAT.Val |= 0x80;
  3696  00185E  8F00               	bsf	0,7,b	;volatile
  3697                           
  3698                           ; BSR set to: 4
  3699                           ;../../../../../../framework/usb/src/usb_device.c: 368:     USBActiveConfiguration = 0;
  3700  001860  0E00               	movlw	0
  3701  001862  6E50               	movwf	_USBActiveConfiguration,c	;volatile
  3702                           
  3703                           ; BSR set to: 4
  3704                           ;../../../../../../framework/usb/src/usb_device.c: 370:     USB1msTickCount = 0;
  3705  001864  0E00               	movlw	0
  3706  001866  6E2A               	movwf	_USB1msTickCount,c	;volatile
  3707  001868  0E00               	movlw	0
  3708  00186A  6E2B               	movwf	_USB1msTickCount+1,c	;volatile
  3709  00186C  0E00               	movlw	0
  3710  00186E  6E2C               	movwf	_USB1msTickCount+2,c	;volatile
  3711  001870  0E00               	movlw	0
  3712  001872  6E2D               	movwf	_USB1msTickCount+3,c	;volatile
  3713                           
  3714                           ; BSR set to: 4
  3715                           ;../../../../../../framework/usb/src/usb_device.c: 371:     USBTicksSinceSuspendEnd = 0;
  3716  001874  0E00               	movlw	0
  3717  001876  6E38               	movwf	_USBTicksSinceSuspendEnd,c	;volatile
  3718                           
  3719                           ; BSR set to: 4
  3720                           ;../../../../../../framework/usb/src/usb_device.c: 374:     USBDeviceState = DETACHED_ST
      +                          ATE;
  3721  001878  0E00               	movlw	0
  3722  00187A  6E45               	movwf	_USBDeviceState,c	;volatile
  3723                           
  3724                           ; BSR set to: 4
  3725  00187C  0012               	return		;funcret
  3726  00187E                     __end_ofi2_USBDeviceInit:
  3727                           	opt callstack 0
  3728                           
  3729 ;; *************** function _USBWakeFromSuspend *****************
  3730 ;; Defined at:
  3731 ;;		line 2310 in file "../../../../../../framework/usb/src/usb_device.c"
  3732 ;; Parameters:    Size  Location     Type
  3733 ;;		None
  3734 ;; Auto vars:     Size  Location     Type
  3735 ;;		None
  3736 ;; Return value:  Size  Location     Type
  3737 ;;                  1    wreg      void 
  3738 ;; Registers used:
  3739 ;;		wreg, fsr2l, fsr2h, status,2, status,0, prodl, prodh, cstack
  3740 ;; Tracked objects:
  3741 ;;		On entry : 0/0
  3742 ;;		On exit  : 0/0
  3743 ;;		Unchanged: 0/0
  3744 ;; Data sizes:     COMRAM   BANK0   BANK1   BANK2   BANK3   BANK4   BANK5   BANK6   BANK7   BANK8   BANK9  BANK10  BANK1
      +1  BANK12  BANK13  BANK14
  3745 ;;      Params:         0       0       0       0       0       0       0       0       0       0       0       0       
      +0       0       0       0
  3746 ;;      Locals:         0       0       0       0       0       0       0       0       0       0       0       0       
      +0       0       0       0
  3747 ;;      Temps:          0       0       0       0       0       0       0       0       0       0       0       0       
      +0       0       0       0
  3748 ;;      Totals:         0       0       0       0       0       0       0       0       0       0       0       0       
      +0       0       0       0
  3749 ;;Total ram usage:        0 bytes
  3750 ;; Hardware stack levels used:    1
  3751 ;; Hardware stack levels required when called:    4
  3752 ;; This function calls:
  3753 ;;		_USER_USB_CALLBACK_EVENT_HANDLER
  3754 ;; This function is called by:
  3755 ;;		_USBDeviceTasks
  3756 ;; This function uses a non-reentrant model
  3757 ;;
  3758                           
  3759                           	psect	text17
  3760  002CB4                     __ptext17:
  3761                           	opt callstack 0
  3762  002CB4                     _USBWakeFromSuspend:
  3763                           	opt callstack 21
  3764                           
  3765                           ;../../../../../../framework/usb/src/usb_device.c: 2312:     USBBusIsSuspended = 0;
  3766                           
  3767                           ; BSR set to: 4
  3768                           ;incstack = 0
  3769  002CB4  0E00               	movlw	0
  3770  002CB6  6E41               	movwf	_USBBusIsSuspended,c	;volatile
  3771                           
  3772                           ;../../../../../../framework/usb/src/usb_device.c: 2318:     USER_USB_CALLBACK_EVENT_HAN
      +                          DLER((USB_EVENT)EVENT_RESUME,0,0);
  3773  002CB8  0E00               	movlw	0
  3774  002CBA  6E0E               	movwf	USER_USB_CALLBACK_EVENT_HANDLER@event+1,c
  3775  002CBC  0E74               	movlw	116
  3776  002CBE  6E0D               	movwf	USER_USB_CALLBACK_EVENT_HANDLER@event,c
  3777  002CC0  0E00               	movlw	0
  3778  002CC2  6E0F               	movwf	USER_USB_CALLBACK_EVENT_HANDLER@pdata,c
  3779  002CC4  0E00               	movlw	0
  3780  002CC6  6E10               	movwf	USER_USB_CALLBACK_EVENT_HANDLER@pdata+1,c
  3781  002CC8  0E00               	movlw	0
  3782  002CCA  6E12               	movwf	USER_USB_CALLBACK_EVENT_HANDLER@size+1,c
  3783  002CCC  0E00               	movlw	0
  3784  002CCE  6E11               	movwf	USER_USB_CALLBACK_EVENT_HANDLER@size,c
  3785  002CD0  EC65  F014         	call	_USER_USB_CALLBACK_EVENT_HANDLER	;wreg free
  3786                           
  3787                           ;../../../../../../framework/usb/src/usb_device.c: 2325:         UCONbits.SUSPND = 0;
  3788  002CD4  9265               	bcf	3941,1,c	;volatile
  3789                           
  3790                           ;../../../../../../framework/usb/src/usb_device.c: 2330:     UIEbits.ACTVIE = 0;
  3791  002CD6  010F               	movlb	15	; () banked
  3792  002CD8  9536               	bcf	54,2,b	;volatile
  3793                           
  3794                           ;../../../../../../framework/usb/src/usb_device.c: 2348:     while(UIRbits.ACTVIF)
  3795  002CDA  D001               	goto	i2l4255
  3796  002CDC                     i2l4253:
  3797                           
  3798                           ;../../../../../../framework/usb/src/usb_device.c: 2350:     {;../../../../../../framewo
      +                          rk/usb/src/usb_device.c: 2351:         (UIR &= 0xFB);
  3799  002CDC  9462               	bcf	3938,2,c	;volatile
  3800  002CDE                     i2l4255:
  3801                           
  3802                           ;../../../../../../framework/usb/src/usb_device.c: 2348:     while(UIRbits.ACTVIF)
  3803  002CDE  B462               	btfsc	3938,2,c	;volatile
  3804  002CE0  D7FD               	goto	i2l4253
  3805                           
  3806                           ;../../../../../../framework/usb/src/usb_device.c: 2354:     USBTicksSinceSuspendEnd = 0
      +                          ;
  3807  002CE2  0E00               	movlw	0
  3808  002CE4  6E38               	movwf	_USBTicksSinceSuspendEnd,c	;volatile
  3809  002CE6  0012               	return		;funcret
  3810  002CE8                     __end_of_USBWakeFromSuspend:
  3811                           	opt callstack 0
  3812                           
  3813 ;; *************** function _USBSuspend *****************
  3814 ;; Defined at:
  3815 ;;		line 2252 in file "../../../../../../framework/usb/src/usb_device.c"
  3816 ;; Parameters:    Size  Location     Type
  3817 ;;		None
  3818 ;; Auto vars:     Size  Location     Type
  3819 ;;		None
  3820 ;; Return value:  Size  Location     Type
  3821 ;;                  1    wreg      void 
  3822 ;; Registers used:
  3823 ;;		wreg, fsr2l, fsr2h, status,2, status,0, prodl, prodh, cstack
  3824 ;; Tracked objects:
  3825 ;;		On entry : 0/0
  3826 ;;		On exit  : 0/0
  3827 ;;		Unchanged: 0/0
  3828 ;; Data sizes:     COMRAM   BANK0   BANK1   BANK2   BANK3   BANK4   BANK5   BANK6   BANK7   BANK8   BANK9  BANK10  BANK1
      +1  BANK12  BANK13  BANK14
  3829 ;;      Params:         0       0       0       0       0       0       0       0       0       0       0       0       
      +0       0       0       0
  3830 ;;      Locals:         0       0       0       0       0       0       0       0       0       0       0       0       
      +0       0       0       0
  3831 ;;      Temps:          0       0       0       0       0       0       0       0       0       0       0       0       
      +0       0       0       0
  3832 ;;      Totals:         0       0       0       0       0       0       0       0       0       0       0       0       
      +0       0       0       0
  3833 ;;Total ram usage:        0 bytes
  3834 ;; Hardware stack levels used:    1
  3835 ;; Hardware stack levels required when called:    4
  3836 ;; This function calls:
  3837 ;;		_USER_USB_CALLBACK_EVENT_HANDLER
  3838 ;; This function is called by:
  3839 ;;		_USBDeviceTasks
  3840 ;; This function uses a non-reentrant model
  3841 ;;
  3842                           
  3843                           	psect	text18
  3844  002DD8                     __ptext18:
  3845                           	opt callstack 0
  3846  002DD8                     _USBSuspend:
  3847                           	opt callstack 21
  3848                           
  3849                           ;../../../../../../framework/usb/src/usb_device.c: 2277:     UIEbits.ACTVIE = 1;
  3850                           
  3851                           ;incstack = 0
  3852  002DD8  010F               	movlb	15	; () banked
  3853  002DDA  8536               	bsf	54,2,b	;volatile
  3854                           
  3855                           ; BSR set to: 15
  3856                           ;../../../../../../framework/usb/src/usb_device.c: 2278:     (UIR &= 0xEF);
  3857  002DDC  9862               	bcf	3938,4,c	;volatile
  3858                           
  3859                           ; BSR set to: 15
  3860                           ;../../../../../../framework/usb/src/usb_device.c: 2281:         UCONbits.SUSPND = 1;
  3861  002DDE  8265               	bsf	3941,1,c	;volatile
  3862                           
  3863                           ; BSR set to: 15
  3864                           ;../../../../../../framework/usb/src/usb_device.c: 2284:     USBBusIsSuspended = 1;
  3865  002DE0  0E01               	movlw	1
  3866  002DE2  6E41               	movwf	_USBBusIsSuspended,c	;volatile
  3867                           
  3868                           ; BSR set to: 15
  3869                           ;../../../../../../framework/usb/src/usb_device.c: 2285:     USBTicksSinceSuspendEnd = 0
      +                          ;
  3870  002DE4  0E00               	movlw	0
  3871  002DE6  6E38               	movwf	_USBTicksSinceSuspendEnd,c	;volatile
  3872                           
  3873                           ; BSR set to: 15
  3874                           ;../../../../../../framework/usb/src/usb_device.c: 2292:     USER_USB_CALLBACK_EVENT_HAN
      +                          DLER((USB_EVENT)EVENT_SUSPEND,0,0);
  3875  002DE8  0E00               	movlw	0
  3876  002DEA  6E0E               	movwf	USER_USB_CALLBACK_EVENT_HANDLER@event+1,c
  3877  002DEC  0E75               	movlw	117
  3878  002DEE  6E0D               	movwf	USER_USB_CALLBACK_EVENT_HANDLER@event,c
  3879  002DF0  0E00               	movlw	0
  3880  002DF2  6E0F               	movwf	USER_USB_CALLBACK_EVENT_HANDLER@pdata,c
  3881  002DF4  0E00               	movlw	0
  3882  002DF6  6E10               	movwf	USER_USB_CALLBACK_EVENT_HANDLER@pdata+1,c
  3883  002DF8  0E00               	movlw	0
  3884  002DFA  6E12               	movwf	USER_USB_CALLBACK_EVENT_HANDLER@size+1,c
  3885  002DFC  0E00               	movlw	0
  3886  002DFE  6E11               	movwf	USER_USB_CALLBACK_EVENT_HANDLER@size,c
  3887  002E00  EC65  F014         	call	_USER_USB_CALLBACK_EVENT_HANDLER	;wreg free
  3888  002E04  0012               	return		;funcret
  3889  002E06                     __end_of_USBSuspend:
  3890                           	opt callstack 0
  3891                           
  3892 ;; *************** function _USBStallHandler *****************
  3893 ;; Defined at:
  3894 ;;		line 2209 in file "../../../../../../framework/usb/src/usb_device.c"
  3895 ;; Parameters:    Size  Location     Type
  3896 ;;		None
  3897 ;; Auto vars:     Size  Location     Type
  3898 ;;		None
  3899 ;; Return value:  Size  Location     Type
  3900 ;;                  1    wreg      void 
  3901 ;; Registers used:
  3902 ;;		wreg, fsr2l, fsr2h, status,2, status,0
  3903 ;; Tracked objects:
  3904 ;;		On entry : 0/0
  3905 ;;		On exit  : 0/0
  3906 ;;		Unchanged: 0/0
  3907 ;; Data sizes:     COMRAM   BANK0   BANK1   BANK2   BANK3   BANK4   BANK5   BANK6   BANK7   BANK8   BANK9  BANK10  BANK1
      +1  BANK12  BANK13  BANK14
  3908 ;;      Params:         0       0       0       0       0       0       0       0       0       0       0       0       
      +0       0       0       0
  3909 ;;      Locals:         0       0       0       0       0       0       0       0       0       0       0       0       
      +0       0       0       0
  3910 ;;      Temps:          1       0       0       0       0       0       0       0       0       0       0       0       
      +0       0       0       0
  3911 ;;      Totals:         1       0       0       0       0       0       0       0       0       0       0       0       
      +0       0       0       0
  3912 ;;Total ram usage:        1 bytes
  3913 ;; Hardware stack levels used:    1
  3914 ;; This function calls:
  3915 ;;		Nothing
  3916 ;; This function is called by:
  3917 ;;		_USBDeviceTasks
  3918 ;; This function uses a non-reentrant model
  3919 ;;
  3920                           
  3921                           	psect	text19
  3922  002B8A                     __ptext19:
  3923                           	opt callstack 0
  3924  002B8A                     _USBStallHandler:
  3925                           	opt callstack 25
  3926                           
  3927                           ;../../../../../../framework/usb/src/usb_device.c: 2221:     if(UEP0bits.EPSTALL == 1)
  3928                           
  3929                           ;incstack = 0
  3930  002B8A  010F               	movlb	15	; () banked
  3931  002B8C  A126               	btfss	38,0,b	;volatile
  3932  002B8E  D01D               	goto	i2l366
  3933                           
  3934                           ; BSR set to: 15
  3935                           ;../../../../../../framework/usb/src/usb_device.c: 2222:     {;../../../../../../framewo
      +                          rk/usb/src/usb_device.c: 2224:         if((pBDTEntryEP0OutCurrent->STAT.Val == 0x80) && 
      +                          (pBDTEntryIn[0]->STAT.Val == (0x80|0x04)))
  3936  002B90  C034  FFD9         	movff	_pBDTEntryEP0OutCurrent,fsr2l
  3937  002B94  C035  FFDA         	movff	_pBDTEntryEP0OutCurrent+1,fsr2h
  3938  002B98  0E80               	movlw	128
  3939  002B9A  18DE               	xorwf	postinc2,w,c
  3940  002B9C  A4D8               	btfss	status,2,c
  3941  002B9E  D014               	goto	i2l4291
  3942                           
  3943                           ; BSR set to: 15
  3944  002BA0  C078  FFD9         	movff	_pBDTEntryIn,fsr2l
  3945  002BA4  C079  FFDA         	movff	_pBDTEntryIn+1,fsr2h
  3946  002BA8  0E84               	movlw	132
  3947  002BAA  18DE               	xorwf	postinc2,w,c
  3948  002BAC  A4D8               	btfss	status,2,c
  3949  002BAE  D00C               	goto	i2l4291
  3950                           
  3951                           ; BSR set to: 15
  3952                           ;../../../../../../framework/usb/src/usb_device.c: 2225:         {;../../../../../../fra
      +                          mework/usb/src/usb_device.c: 2227:             pBDTEntryEP0OutCurrent->STAT.Val = 0x00|(
      +                          0x08 & 0x08)|0x04;
  3953  002BB0  C034  FFD9         	movff	_pBDTEntryEP0OutCurrent,fsr2l
  3954  002BB4  C035  FFDA         	movff	_pBDTEntryEP0OutCurrent+1,fsr2h
  3955  002BB8  0E0C               	movlw	12
  3956  002BBA  6EDF               	movwf	indf2,c
  3957                           
  3958                           ; BSR set to: 15
  3959                           ;../../../../../../framework/usb/src/usb_device.c: 2228:             pBDTEntryEP0OutCurr
      +                          ent->STAT.Val |= 0x80;
  3960  002BBC  C034  FFD9         	movff	_pBDTEntryEP0OutCurrent,fsr2l
  3961  002BC0  C035  FFDA         	movff	_pBDTEntryEP0OutCurrent+1,fsr2h
  3962  002BC4  0E00               	movlw	0
  3963  002BC6  8EDB               	bsf	plusw2,7,c
  3964  002BC8                     i2l4291:
  3965                           
  3966                           ; BSR set to: 15
  3967                           ;../../../../../../framework/usb/src/usb_device.c: 2230:         UEP0bits.EPSTALL = 0;
  3968  002BC8  9126               	bcf	38,0,b	;volatile
  3969  002BCA                     i2l366:
  3970                           
  3971                           ; BSR set to: 15
  3972                           ;../../../../../../framework/usb/src/usb_device.c: 2233:     (UIR &= 0xDF);
  3973  002BCA  9A62               	bcf	3938,5,c	;volatile
  3974                           
  3975                           ; BSR set to: 15
  3976  002BCC  0012               	return		;funcret
  3977  002BCE                     __end_of_USBStallHandler:
  3978                           	opt callstack 0
  3979                           
  3980 ;; *************** function _USBIncrement1msInternalTimers *****************
  3981 ;; Defined at:
  3982 ;;		line 2998 in file "../../../../../../framework/usb/src/usb_device.c"
  3983 ;; Parameters:    Size  Location     Type
  3984 ;;		None
  3985 ;; Auto vars:     Size  Location     Type
  3986 ;;		None
  3987 ;; Return value:  Size  Location     Type
  3988 ;;                  1    wreg      void 
  3989 ;; Registers used:
  3990 ;;		wreg, status,2, status,0
  3991 ;; Tracked objects:
  3992 ;;		On entry : 0/0
  3993 ;;		On exit  : 0/0
  3994 ;;		Unchanged: 0/0
  3995 ;; Data sizes:     COMRAM   BANK0   BANK1   BANK2   BANK3   BANK4   BANK5   BANK6   BANK7   BANK8   BANK9  BANK10  BANK1
      +1  BANK12  BANK13  BANK14
  3996 ;;      Params:         0       0       0       0       0       0       0       0       0       0       0       0       
      +0       0       0       0
  3997 ;;      Locals:         0       0       0       0       0       0       0       0       0       0       0       0       
      +0       0       0       0
  3998 ;;      Temps:          0       0       0       0       0       0       0       0       0       0       0       0       
      +0       0       0       0
  3999 ;;      Totals:         0       0       0       0       0       0       0       0       0       0       0       0       
      +0       0       0       0
  4000 ;;Total ram usage:        0 bytes
  4001 ;; Hardware stack levels used:    1
  4002 ;; This function calls:
  4003 ;;		Nothing
  4004 ;; This function is called by:
  4005 ;;		_USBDeviceTasks
  4006 ;; This function uses a non-reentrant model
  4007 ;;
  4008                           
  4009                           	psect	text20
  4010  002E76                     __ptext20:
  4011                           	opt callstack 0
  4012  002E76                     _USBIncrement1msInternalTimers:
  4013                           	opt callstack 25
  4014                           
  4015                           ;../../../../../../framework/usb/src/usb_device.c: 3006:     USB1msTickCount++;
  4016                           
  4017                           ; BSR set to: 15
  4018                           ;incstack = 0
  4019  002E76  0E01               	movlw	1
  4020  002E78  262A               	addwf	_USB1msTickCount,f,c	;volatile
  4021  002E7A  0E00               	movlw	0
  4022  002E7C  222B               	addwfc	_USB1msTickCount+1,f,c	;volatile
  4023  002E7E  222C               	addwfc	_USB1msTickCount+2,f,c	;volatile
  4024  002E80  222D               	addwfc	_USB1msTickCount+3,f,c	;volatile
  4025                           
  4026                           ;../../../../../../framework/usb/src/usb_device.c: 3007:     if(USBBusIsSuspended == 0)
  4027  002E82  5041               	movf	_USBBusIsSuspended,w,c	;volatile
  4028  002E84  A4D8               	btfss	status,2,c
  4029  002E86  0012               	return	
  4030                           
  4031                           ;../../../../../../framework/usb/src/usb_device.c: 3008:     {;../../../../../../framewo
      +                          rk/usb/src/usb_device.c: 3009:         USBTicksSinceSuspendEnd++;
  4032  002E88  2A38               	incf	_USBTicksSinceSuspendEnd,f,c	;volatile
  4033                           
  4034                           ;../../../../../../framework/usb/src/usb_device.c: 3011:         if(USBTicksSinceSuspend
      +                          End == 0)
  4035  002E8A  5038               	movf	_USBTicksSinceSuspendEnd,w,c	;volatile
  4036  002E8C  A4D8               	btfss	status,2,c
  4037  002E8E  0012               	return	
  4038                           
  4039                           ;../../../../../../framework/usb/src/usb_device.c: 3012:         {;../../../../../../fra
      +                          mework/usb/src/usb_device.c: 3013:             USBTicksSinceSuspendEnd = 255;
  4040  002E90  6838               	setf	_USBTicksSinceSuspendEnd,c	;volatile
  4041  002E92  0012               	return		;funcret
  4042  002E94                     __end_of_USBIncrement1msInternalTimers:
  4043                           	opt callstack 0
  4044                           
  4045 ;; *************** function _USBCtrlEPService *****************
  4046 ;; Defined at:
  4047 ;;		line 2379 in file "../../../../../../framework/usb/src/usb_device.c"
  4048 ;; Parameters:    Size  Location     Type
  4049 ;;		None
  4050 ;; Auto vars:     Size  Location     Type
  4051 ;;		None
  4052 ;; Return value:  Size  Location     Type
  4053 ;;                  1    wreg      void 
  4054 ;; Registers used:
  4055 ;;		wreg, fsr1l, fsr1h, fsr2l, fsr2h, status,2, status,0, tblptrl, tblptrh, tblptru, prodl, prodh, cstack
  4056 ;; Tracked objects:
  4057 ;;		On entry : 0/0
  4058 ;;		On exit  : 0/0
  4059 ;;		Unchanged: 0/0
  4060 ;; Data sizes:     COMRAM   BANK0   BANK1   BANK2   BANK3   BANK4   BANK5   BANK6   BANK7   BANK8   BANK9  BANK10  BANK1
      +1  BANK12  BANK13  BANK14
  4061 ;;      Params:         0       0       0       0       0       0       0       0       0       0       0       0       
      +0       0       0       0
  4062 ;;      Locals:         0       0       0       0       0       0       0       0       0       0       0       0       
      +0       0       0       0
  4063 ;;      Temps:          1       0       0       0       0       0       0       0       0       0       0       0       
      +0       0       0       0
  4064 ;;      Totals:         1       0       0       0       0       0       0       0       0       0       0       0       
      +0       0       0       0
  4065 ;;Total ram usage:        1 bytes
  4066 ;; Hardware stack levels used:    1
  4067 ;; Hardware stack levels required when called:    7
  4068 ;; This function calls:
  4069 ;;		_USBCtrlTrfInHandler
  4070 ;;		_USBCtrlTrfOutHandler
  4071 ;;		_USBCtrlTrfSetupHandler
  4072 ;;		_memcpy
  4073 ;; This function is called by:
  4074 ;;		_USBDeviceTasks
  4075 ;; This function uses a non-reentrant model
  4076 ;;
  4077                           
  4078                           	psect	text21
  4079  00267E                     __ptext21:
  4080                           	opt callstack 0
  4081  00267E                     _USBCtrlEPService:
  4082                           	opt callstack 18
  4083                           
  4084                           ;../../../../../../framework/usb/src/usb_device.c: 2385:         USBStatusStageTimeoutCo
      +                          unter = (uint8_t)45;
  4085                           
  4086                           ;incstack = 0
  4087  00267E  0E2D               	movlw	45
  4088  002680  6E3E               	movwf	_USBStatusStageTimeoutCounter,c	;volatile
  4089                           
  4090                           ;../../../../../../framework/usb/src/usb_device.c: 2389:     if((USTATcopy.Val & ~0x02) 
      +                          == 0x00)
  4091  002682  C04F  F01E         	movff	_USTATcopy,??_USBCtrlEPService	;volatile
  4092  002686  0EFD               	movlw	253
  4093  002688  161E               	andwf	??_USBCtrlEPService,f,c
  4094  00268A  A4D8               	btfss	status,2,c
  4095  00268C  D03B               	goto	i2l4311
  4096                           
  4097                           ;../../../../../../framework/usb/src/usb_device.c: 2390:     {;../../../../../../framewo
      +                          rk/usb/src/usb_device.c: 2393:             pBDTEntryEP0OutCurrent = (volatile BDT_ENTRY*
      +                          )&BDT[(USTATcopy.Val & 0x7E)>>1];
  4098  00268E  C04F  F01E         	movff	_USTATcopy,??_USBCtrlEPService	;volatile
  4099  002692  90D8               	bcf	status,0,c
  4100  002694  321E               	rrcf	??_USBCtrlEPService,f,c
  4101  002696  0E3F               	movlw	63
  4102  002698  161E               	andwf	??_USBCtrlEPService,f,c
  4103  00269A  501E               	movf	??_USBCtrlEPService,w,c
  4104  00269C  0D04               	mullw	4
  4105  00269E  0E00               	movlw	0
  4106  0026A0  24F3               	addwf	prodl,w,c
  4107  0026A2  6E34               	movwf	_pBDTEntryEP0OutCurrent,c
  4108  0026A4  0E04               	movlw	4
  4109  0026A6  20F4               	addwfc	prodh,w,c
  4110  0026A8  6E35               	movwf	_pBDTEntryEP0OutCurrent+1,c
  4111                           
  4112                           ;../../../../../../framework/usb/src/usb_device.c: 2401:         pBDTEntryEP0OutNext = p
      +                          BDTEntryEP0OutCurrent;
  4113  0026AA  C034  F032         	movff	_pBDTEntryEP0OutCurrent,_pBDTEntryEP0OutNext
  4114  0026AE  C035  F033         	movff	_pBDTEntryEP0OutCurrent+1,_pBDTEntryEP0OutNext+1
  4115                           
  4116                           ;../../../../../../framework/usb/src/usb_device.c: 2403:         pBDTEntryEP0OutNext = (
      +                          volatile BDT_ENTRY*)(((uint16_t)pBDTEntryEP0OutNext) ^ 0x0004);
  4117  0026B2  0E04               	movlw	4
  4118  0026B4  1832               	xorwf	_pBDTEntryEP0OutNext,w,c
  4119  0026B6  6E32               	movwf	_pBDTEntryEP0OutNext,c
  4120  0026B8  5033               	movf	_pBDTEntryEP0OutNext+1,w,c
  4121  0026BA  6E33               	movwf	_pBDTEntryEP0OutNext+1,c
  4122                           
  4123                           ;../../../../../../framework/usb/src/usb_device.c: 2406:         if(pBDTEntryEP0OutCurre
      +                          nt->STAT.PID == 0xD)
  4124  0026BC  C034  FFD9         	movff	_pBDTEntryEP0OutCurrent,fsr2l
  4125  0026C0  C035  FFDA         	movff	_pBDTEntryEP0OutCurrent+1,fsr2h
  4126  0026C4  30DF               	rrcf	indf2,w,c
  4127  0026C6  32E8               	rrcf	wreg,f,c
  4128  0026C8  0B0F               	andlw	15
  4129  0026CA  0A0D               	xorlw	13
  4130  0026CC  A4D8               	btfss	status,2,c
  4131  0026CE  D017               	goto	i2l4309
  4132                           
  4133                           ;../../../../../../framework/usb/src/usb_device.c: 2407:         {;../../../../../../fra
      +                          mework/usb/src/usb_device.c: 2412:             memcpy((uint8_t*)&SetupPkt, (uint8_t*)((v
      +                          oid *)(pBDTEntryEP0OutCurrent->ADR)), 8);
  4134  0026D0  0E30               	movlw	48
  4135  0026D2  6E01               	movwf	memcpy@d1,c
  4136  0026D4  0E04               	movlw	4
  4137  0026D6  6E02               	movwf	memcpy@d1+1,c
  4138  0026D8  EE20 F002          	lfsr	2,2
  4139  0026DC  5034               	movf	_pBDTEntryEP0OutCurrent,w,c
  4140  0026DE  26D9               	addwf	fsr2l,f,c
  4141  0026E0  5035               	movf	_pBDTEntryEP0OutCurrent+1,w,c
  4142  0026E2  22DA               	addwfc	fsr2h,f,c
  4143  0026E4  CFDE F003          	movff	postinc2,memcpy@s1
  4144  0026E8  CFDD F004          	movff	postdec2,memcpy@s1+1
  4145  0026EC  0E00               	movlw	0
  4146  0026EE  6E06               	movwf	memcpy@n+1,c
  4147  0026F0  0E08               	movlw	8
  4148  0026F2  6E05               	movwf	memcpy@n,c
  4149  0026F4  ECE7  F015         	call	_memcpy	;wreg free
  4150                           
  4151                           ;../../../../../../framework/usb/src/usb_device.c: 2415:             USBCtrlTrfSetupHand
      +                          ler();
  4152  0026F8  EC1D  F014         	call	_USBCtrlTrfSetupHandler	;wreg free
  4153                           
  4154                           ;../../../../../../framework/usb/src/usb_device.c: 2416:         }
  4155  0026FC  0012               	return	
  4156  0026FE                     i2l4309:
  4157                           
  4158                           ;../../../../../../framework/usb/src/usb_device.c: 2418:         {;../../../../../../fra
      +                          mework/usb/src/usb_device.c: 2420:             USBCtrlTrfOutHandler();
  4159  0026FE  EC48  F015         	call	_USBCtrlTrfOutHandler	;wreg free
  4160  002702  0012               	return	
  4161  002704                     i2l4311:
  4162  002704  504F               	movf	_USTATcopy,w,c	;volatile
  4163  002706  0BFD               	andlw	253
  4164  002708  0A04               	xorlw	4
  4165  00270A  A4D8               	btfss	status,2,c
  4166  00270C  0012               	return	
  4167                           
  4168                           ;../../../../../../framework/usb/src/usb_device.c: 2424:     {;../../../../../../framewo
      +                          rk/usb/src/usb_device.c: 2427:         USBCtrlTrfInHandler();
  4169  00270E  EC7F  F011         	call	_USBCtrlTrfInHandler	;wreg free
  4170  002712  0012               	return		;funcret
  4171  002714                     __end_of_USBCtrlEPService:
  4172                           	opt callstack 0
  4173                           
  4174 ;; *************** function _memcpy *****************
  4175 ;; Defined at:
  4176 ;;		line 4 in file "C:\Program Files (x86)\Microchip\xc8\v2.05\pic\sources\c99\common\memcpy.c"
  4177 ;; Parameters:    Size  Location     Type
  4178 ;;  d1              2    0[COMRAM] PTR void 
  4179 ;;		 -> SetupPkt(8), 
  4180 ;;  s1              2    2[COMRAM] PTR const void 
  4181 ;;		 -> CtrlTrfData(8), RAM(3775), SetupPkt(8), 
  4182 ;;  n               2    4[COMRAM] unsigned int 
  4183 ;; Auto vars:     Size  Location     Type
  4184 ;;  s               2    8[COMRAM] PTR const unsigned char 
  4185 ;;		 -> CtrlTrfData(8), RAM(3775), SetupPkt(8), 
  4186 ;;  d               2    6[COMRAM] PTR unsigned char 
  4187 ;;		 -> SetupPkt(8), 
  4188 ;;  tmp             1   10[COMRAM] unsigned char 
  4189 ;; Return value:  Size  Location     Type
  4190 ;;                  2    0[COMRAM] PTR void 
  4191 ;; Registers used:
  4192 ;;		wreg, fsr2l, fsr2h, status,2, status,0
  4193 ;; Tracked objects:
  4194 ;;		On entry : 0/0
  4195 ;;		On exit  : 0/0
  4196 ;;		Unchanged: 0/0
  4197 ;; Data sizes:     COMRAM   BANK0   BANK1   BANK2   BANK3   BANK4   BANK5   BANK6   BANK7   BANK8   BANK9  BANK10  BANK1
      +1  BANK12  BANK13  BANK14
  4198 ;;      Params:         6       0       0       0       0       0       0       0       0       0       0       0       
      +0       0       0       0
  4199 ;;      Locals:         5       0       0       0       0       0       0       0       0       0       0       0       
      +0       0       0       0
  4200 ;;      Temps:          0       0       0       0       0       0       0       0       0       0       0       0       
      +0       0       0       0
  4201 ;;      Totals:        11       0       0       0       0       0       0       0       0       0       0       0       
      +0       0       0       0
  4202 ;;Total ram usage:       11 bytes
  4203 ;; Hardware stack levels used:    1
  4204 ;; This function calls:
  4205 ;;		Nothing
  4206 ;; This function is called by:
  4207 ;;		_USBCtrlEPService
  4208 ;; This function uses a non-reentrant model
  4209 ;;
  4210                           
  4211                           	psect	text22
  4212  002BCE                     __ptext22:
  4213                           	opt callstack 0
  4214  002BCE                     _memcpy:
  4215                           	opt callstack 24
  4216                           
  4217                           ;incstack = 0
  4218  002BCE  C003  F009         	movff	memcpy@s1,memcpy@s
  4219  002BD2  C004  F00A         	movff	memcpy@s1+1,memcpy@s+1
  4220  002BD6  C001  F007         	movff	memcpy@d1,memcpy@d
  4221  002BDA  C002  F008         	movff	memcpy@d1+1,memcpy@d+1
  4222  002BDE  D010               	goto	i2l4113
  4223  002BE0                     i2l4105:
  4224  002BE0  C009  FFD9         	movff	memcpy@s,fsr2l
  4225  002BE4  C00A  FFDA         	movff	memcpy@s+1,fsr2h
  4226  002BE8  50DF               	movf	indf2,w,c
  4227  002BEA  6E0B               	movwf	memcpy@tmp,c
  4228  002BEC  4A09               	infsnz	memcpy@s,f,c
  4229  002BEE  2A0A               	incf	memcpy@s+1,f,c
  4230  002BF0  C007  FFD9         	movff	memcpy@d,fsr2l
  4231  002BF4  C008  FFDA         	movff	memcpy@d+1,fsr2h
  4232  002BF8  C00B  FFDF         	movff	memcpy@tmp,indf2
  4233  002BFC  4A07               	infsnz	memcpy@d,f,c
  4234  002BFE  2A08               	incf	memcpy@d+1,f,c
  4235  002C00                     i2l4113:
  4236  002C00  0605               	decf	memcpy@n,f,c
  4237  002C02  A0D8               	btfss	status,0,c
  4238  002C04  0606               	decf	memcpy@n+1,f,c
  4239  002C06  2805               	incf	memcpy@n,w,c
  4240  002C08  E1EB               	bnz	i2l4105
  4241  002C0A  2806               	incf	memcpy@n+1,w,c
  4242  002C0C  B4D8               	btfsc	status,2,c
  4243  002C0E  0012               	return	
  4244  002C10  D7E7               	goto	i2l4105
  4245  002C12                     __end_of_memcpy:
  4246                           	opt callstack 0
  4247                           
  4248 ;; *************** function _USBCtrlTrfSetupHandler *****************
  4249 ;; Defined at:
  4250 ;;		line 2472 in file "../../../../../../framework/usb/src/usb_device.c"
  4251 ;; Parameters:    Size  Location     Type
  4252 ;;		None
  4253 ;; Auto vars:     Size  Location     Type
  4254 ;;		None
  4255 ;; Return value:  Size  Location     Type
  4256 ;;                  1    wreg      void 
  4257 ;; Registers used:
  4258 ;;		wreg, fsr1l, fsr1h, fsr2l, fsr2h, status,2, status,0, tblptrl, tblptrh, tblptru, prodl, prodh, cstack
  4259 ;; Tracked objects:
  4260 ;;		On entry : 0/0
  4261 ;;		On exit  : 0/0
  4262 ;;		Unchanged: 0/0
  4263 ;; Data sizes:     COMRAM   BANK0   BANK1   BANK2   BANK3   BANK4   BANK5   BANK6   BANK7   BANK8   BANK9  BANK10  BANK1
      +1  BANK12  BANK13  BANK14
  4264 ;;      Params:         0       0       0       0       0       0       0       0       0       0       0       0       
      +0       0       0       0
  4265 ;;      Locals:         0       0       0       0       0       0       0       0       0       0       0       0       
      +0       0       0       0
  4266 ;;      Temps:          0       0       0       0       0       0       0       0       0       0       0       0       
      +0       0       0       0
  4267 ;;      Totals:         0       0       0       0       0       0       0       0       0       0       0       0       
      +0       0       0       0
  4268 ;;Total ram usage:        0 bytes
  4269 ;; Hardware stack levels used:    1
  4270 ;; Hardware stack levels required when called:    6
  4271 ;; This function calls:
  4272 ;;		_USBCheckStdRequest
  4273 ;;		_USBCtrlEPServiceComplete
  4274 ;;		_USER_USB_CALLBACK_EVENT_HANDLER
  4275 ;; This function is called by:
  4276 ;;		_USBCtrlEPService
  4277 ;; This function uses a non-reentrant model
  4278 ;;
  4279                           
  4280                           	psect	text23
  4281  00283A                     __ptext23:
  4282                           	opt callstack 0
  4283  00283A                     _USBCtrlTrfSetupHandler:
  4284                           	opt callstack 18
  4285                           
  4286                           ;../../../../../../framework/usb/src/usb_device.c: 2477:     shortPacketStatus = 0;
  4287                           
  4288                           ;incstack = 0
  4289  00283A  0E00               	movlw	0
  4290  00283C  6E44               	movwf	_shortPacketStatus,c	;volatile
  4291                           
  4292                           ;../../../../../../framework/usb/src/usb_device.c: 2478:     USBDeferStatusStagePacket =
      +                           0;
  4293  00283E  0E00               	movlw	0
  4294  002840  6E3D               	movwf	_USBDeferStatusStagePacket,c	;volatile
  4295                           
  4296                           ;../../../../../../framework/usb/src/usb_device.c: 2479:     USBDeferINDataStagePackets 
      +                          = 0;
  4297  002842  0E00               	movlw	0
  4298  002844  6E3A               	movwf	_USBDeferINDataStagePackets,c	;volatile
  4299                           
  4300                           ;../../../../../../framework/usb/src/usb_device.c: 2480:     USBDeferOUTDataStagePackets
      +                           = 0;
  4301  002846  0E00               	movlw	0
  4302  002848  6E39               	movwf	_USBDeferOUTDataStagePackets,c	;volatile
  4303                           
  4304                           ;../../../../../../framework/usb/src/usb_device.c: 2481:     BothEP0OutUOWNsSet = 0;
  4305  00284A  0E00               	movlw	0
  4306  00284C  6E3F               	movwf	_BothEP0OutUOWNsSet,c	;volatile
  4307                           
  4308                           ;../../../../../../framework/usb/src/usb_device.c: 2482:     controlTransferState = 0;
  4309  00284E  0E00               	movlw	0
  4310  002850  6E43               	movwf	_controlTransferState,c	;volatile
  4311                           
  4312                           ;../../../../../../framework/usb/src/usb_device.c: 2491:     pBDTEntryIn[0]->STAT.Val &=
      +                           ~(0x80);
  4313  002852  C078  FFD9         	movff	_pBDTEntryIn,fsr2l
  4314  002856  C079  FFDA         	movff	_pBDTEntryIn+1,fsr2h
  4315  00285A  0E7F               	movlw	127
  4316  00285C  16DF               	andwf	indf2,f,c
  4317                           
  4318                           ;../../../../../../framework/usb/src/usb_device.c: 2493:     pBDTEntryIn[0] = (volatile 
      +                          BDT_ENTRY*)(((uint16_t)pBDTEntryIn[0]) ^ 0x0004);
  4319  00285E  0E04               	movlw	4
  4320  002860  0100               	movlb	0	; () banked
  4321  002862  1978               	xorwf	_pBDTEntryIn& (0+255),w,b
  4322  002864  6F78               	movwf	_pBDTEntryIn& (0+255),b
  4323  002866  5179               	movf	(_pBDTEntryIn+1)& (0+255),w,b
  4324  002868  6F79               	movwf	(_pBDTEntryIn+1)& (0+255),b
  4325                           
  4326                           ; BSR set to: 0
  4327                           ;../../../../../../framework/usb/src/usb_device.c: 2494:     pBDTEntryIn[0]->STAT.Val &=
      +                           ~(0x80);
  4328  00286A  C078  FFD9         	movff	_pBDTEntryIn,fsr2l
  4329  00286E  C079  FFDA         	movff	_pBDTEntryIn+1,fsr2h
  4330  002872  0E7F               	movlw	127
  4331  002874  16DF               	andwf	indf2,f,c
  4332                           
  4333                           ; BSR set to: 0
  4334                           ;../../../../../../framework/usb/src/usb_device.c: 2495:     pBDTEntryIn[0] = (volatile 
      +                          BDT_ENTRY*)(((uint16_t)pBDTEntryIn[0]) ^ 0x0004);
  4335  002876  0E04               	movlw	4
  4336  002878  1978               	xorwf	_pBDTEntryIn& (0+255),w,b
  4337  00287A  6F78               	movwf	_pBDTEntryIn& (0+255),b
  4338  00287C  5179               	movf	(_pBDTEntryIn+1)& (0+255),w,b
  4339  00287E  6F79               	movwf	(_pBDTEntryIn+1)& (0+255),b
  4340                           
  4341                           ; BSR set to: 0
  4342                           ;../../../../../../framework/usb/src/usb_device.c: 2496:     pBDTEntryEP0OutNext->STAT.V
      +                          al &= ~(0x80);
  4343  002880  C032  FFD9         	movff	_pBDTEntryEP0OutNext,fsr2l
  4344  002884  C033  FFDA         	movff	_pBDTEntryEP0OutNext+1,fsr2h
  4345  002888  0E7F               	movlw	127
  4346  00288A  16DF               	andwf	indf2,f,c
  4347                           
  4348                           ; BSR set to: 0
  4349                           ;../../../../../../framework/usb/src/usb_device.c: 2498:     inPipes[0].info.Val = 0;
  4350  00288C  0E00               	movlw	0
  4351  00288E  6F75               	movwf	(_inPipes+3)& (0+255),b	;volatile
  4352                           
  4353                           ; BSR set to: 0
  4354                           ;../../../../../../framework/usb/src/usb_device.c: 2499:     inPipes[0].wCount.Val = 0;
  4355  002890  0E00               	movlw	0
  4356  002892  6F77               	movwf	(_inPipes+5)& (0+255),b	;volatile
  4357  002894  0E00               	movlw	0
  4358  002896  6F76               	movwf	(_inPipes+4)& (0+255),b	;volatile
  4359                           
  4360                           ; BSR set to: 0
  4361                           ;../../../../../../framework/usb/src/usb_device.c: 2500:     outPipes[0].info.Val = 0;
  4362  002898  0E00               	movlw	0
  4363  00289A  6F6D               	movwf	(_outPipes+3)& (0+255),b	;volatile
  4364                           
  4365                           ; BSR set to: 0
  4366                           ;../../../../../../framework/usb/src/usb_device.c: 2501:     outPipes[0].wCount.Val = 0;
  4367  00289C  0E00               	movlw	0
  4368  00289E  6F6F               	movwf	(_outPipes+5)& (0+255),b	;volatile
  4369  0028A0  0E00               	movlw	0
  4370  0028A2  6F6E               	movwf	(_outPipes+4)& (0+255),b	;volatile
  4371                           
  4372                           ; BSR set to: 0
  4373                           ;../../../../../../framework/usb/src/usb_device.c: 2507:     USBCheckStdRequest();
  4374  0028A4  EC6B  F00F         	call	_USBCheckStdRequest	;wreg free
  4375                           
  4376                           ;../../../../../../framework/usb/src/usb_device.c: 2508:     USER_USB_CALLBACK_EVENT_HAN
      +                          DLER((USB_EVENT)EVENT_EP0_REQUEST,0,0);
  4377  0028A8  0E00               	movlw	0
  4378  0028AA  6E0E               	movwf	USER_USB_CALLBACK_EVENT_HANDLER@event+1,c
  4379  0028AC  0E03               	movlw	3
  4380  0028AE  6E0D               	movwf	USER_USB_CALLBACK_EVENT_HANDLER@event,c
  4381  0028B0  0E00               	movlw	0
  4382  0028B2  6E0F               	movwf	USER_USB_CALLBACK_EVENT_HANDLER@pdata,c
  4383  0028B4  0E00               	movlw	0
  4384  0028B6  6E10               	movwf	USER_USB_CALLBACK_EVENT_HANDLER@pdata+1,c
  4385  0028B8  0E00               	movlw	0
  4386  0028BA  6E12               	movwf	USER_USB_CALLBACK_EVENT_HANDLER@size+1,c
  4387  0028BC  0E00               	movlw	0
  4388  0028BE  6E11               	movwf	USER_USB_CALLBACK_EVENT_HANDLER@size,c
  4389  0028C0  EC65  F014         	call	_USER_USB_CALLBACK_EVENT_HANDLER	;wreg free
  4390                           
  4391                           ;../../../../../../framework/usb/src/usb_device.c: 2521:     USBCtrlEPServiceComplete();
  4392  0028C4  ECDD  F00F         	call	_USBCtrlEPServiceComplete	;wreg free
  4393  0028C8  0012               	return		;funcret
  4394  0028CA                     __end_of_USBCtrlTrfSetupHandler:
  4395                           	opt callstack 0
  4396                           
  4397 ;; *************** function _USBCtrlEPServiceComplete *****************
  4398 ;; Defined at:
  4399 ;;		line 1620 in file "../../../../../../framework/usb/src/usb_device.c"
  4400 ;; Parameters:    Size  Location     Type
  4401 ;;		None
  4402 ;; Auto vars:     Size  Location     Type
  4403 ;;		None
  4404 ;; Return value:  Size  Location     Type
  4405 ;;                  1    wreg      void 
  4406 ;; Registers used:
  4407 ;;		wreg, fsr1l, fsr1h, fsr2l, fsr2h, status,2, status,0, tblptrl, tblptrh, tblptru, cstack
  4408 ;; Tracked objects:
  4409 ;;		On entry : 0/0
  4410 ;;		On exit  : 0/0
  4411 ;;		Unchanged: 0/0
  4412 ;; Data sizes:     COMRAM   BANK0   BANK1   BANK2   BANK3   BANK4   BANK5   BANK6   BANK7   BANK8   BANK9  BANK10  BANK1
      +1  BANK12  BANK13  BANK14
  4413 ;;      Params:         0       0       0       0       0       0       0       0       0       0       0       0       
      +0       0       0       0
  4414 ;;      Locals:         0       0       0       0       0       0       0       0       0       0       0       0       
      +0       0       0       0
  4415 ;;      Temps:          0       0       0       0       0       0       0       0       0       0       0       0       
      +0       0       0       0
  4416 ;;      Totals:         0       0       0       0       0       0       0       0       0       0       0       0       
      +0       0       0       0
  4417 ;;Total ram usage:        0 bytes
  4418 ;; Hardware stack levels used:    1
  4419 ;; Hardware stack levels required when called:    2
  4420 ;; This function calls:
  4421 ;;		_USBCtrlEPAllowDataStage
  4422 ;;		_USBCtrlEPAllowStatusStage
  4423 ;; This function is called by:
  4424 ;;		_USBCtrlTrfSetupHandler
  4425 ;; This function uses a non-reentrant model
  4426 ;;
  4427                           
  4428                           	psect	text24
  4429  001FBA                     __ptext24:
  4430                           	opt callstack 0
  4431  001FBA                     _USBCtrlEPServiceComplete:
  4432                           	opt callstack 21
  4433                           
  4434                           ;../../../../../../framework/usb/src/usb_device.c: 1626:     UCONbits.PKTDIS = 0;
  4435                           
  4436                           ;incstack = 0
  4437  001FBA  9865               	bcf	3941,4,c	;volatile
  4438                           
  4439                           ;../../../../../../framework/usb/src/usb_device.c: 1632:     if(inPipes[0].info.bits.bus
      +                          y == 0)
  4440  001FBC  0100               	movlb	0	; () banked
  4441  001FBE  BF75               	btfsc	(_inPipes+3)& (0+255),7,b	;volatile
  4442  001FC0  D038               	goto	i2l289
  4443                           
  4444                           ; BSR set to: 0
  4445                           ;../../../../../../framework/usb/src/usb_device.c: 1633:     {;../../../../../../framewo
      +                          rk/usb/src/usb_device.c: 1634:         if(outPipes[0].info.bits.busy == 1)
  4446  001FC2  AF6D               	btfss	(_outPipes+3)& (0+255),7,b	;volatile
  4447  001FC4  D00B               	goto	i2l3947
  4448                           
  4449                           ; BSR set to: 0
  4450                           ;../../../../../../framework/usb/src/usb_device.c: 1635:         {;../../../../../../fra
      +                          mework/usb/src/usb_device.c: 1636:             controlTransferState = 2;
  4451  001FC6  0E02               	movlw	2
  4452  001FC8  6E43               	movwf	_controlTransferState,c	;volatile
  4453                           
  4454                           ;../../../../../../framework/usb/src/usb_device.c: 1647:             if(USBDeferOUTDataS
      +                          tagePackets == 0)
  4455  001FCA  5039               	movf	_USBDeferOUTDataStagePackets,w,c	;volatile
  4456  001FCC  B4D8               	btfsc	status,2,c
  4457                           
  4458                           ; BSR set to: 0
  4459                           ;../../../../../../framework/usb/src/usb_device.c: 1648:             {;../../../../../..
      +                          /framework/usb/src/usb_device.c: 1649:                 USBCtrlEPAllowDataStage();
  4460  001FCE  ECF0  F012         	call	_USBCtrlEPAllowDataStage	;wreg free
  4461                           
  4462                           ;../../../../../../framework/usb/src/usb_device.c: 1654:             USBStatusStageEnabl
      +                          edFlag2 = 0;
  4463  001FD2  0E00               	movlw	0
  4464  001FD4  6E3B               	movwf	_USBStatusStageEnabledFlag2,c	;volatile
  4465                           
  4466                           ;../../../../../../framework/usb/src/usb_device.c: 1655:             USBStatusStageEnabl
      +                          edFlag1 = 0;
  4467  001FD6  0E00               	movlw	0
  4468  001FD8  6E3C               	movwf	_USBStatusStageEnabledFlag1,c	;volatile
  4469                           
  4470                           ;../../../../../../framework/usb/src/usb_device.c: 1656:         }
  4471  001FDA  0012               	return	
  4472  001FDC                     i2l3947:
  4473                           
  4474                           ; BSR set to: 0
  4475                           ;../../../../../../framework/usb/src/usb_device.c: 1658:         {;../../../../../../fra
      +                          mework/usb/src/usb_device.c: 1663:             pBDTEntryEP0OutNext->CNT = 8;
  4476  001FDC  EE20 F001          	lfsr	2,1
  4477  001FE0  5032               	movf	_pBDTEntryEP0OutNext,w,c
  4478  001FE2  26D9               	addwf	fsr2l,f,c
  4479  001FE4  5033               	movf	_pBDTEntryEP0OutNext+1,w,c
  4480  001FE6  22DA               	addwfc	fsr2h,f,c
  4481  001FE8  0E08               	movlw	8
  4482  001FEA  6EDF               	movwf	indf2,c
  4483                           
  4484                           ;../../../../../../framework/usb/src/usb_device.c: 1664:             pBDTEntryEP0OutNext
      +                          ->ADR = ((uint16_t)(&SetupPkt));
  4485  001FEC  EE20 F002          	lfsr	2,2
  4486  001FF0  5032               	movf	_pBDTEntryEP0OutNext,w,c
  4487  001FF2  26D9               	addwf	fsr2l,f,c
  4488  001FF4  5033               	movf	_pBDTEntryEP0OutNext+1,w,c
  4489  001FF6  22DA               	addwfc	fsr2h,f,c
  4490  001FF8  0E30               	movlw	48
  4491  001FFA  6EDE               	movwf	postinc2,c
  4492  001FFC  0E04               	movlw	4
  4493  001FFE  6EDD               	movwf	postdec2,c
  4494                           
  4495                           ; BSR set to: 0
  4496                           ;../../../../../../framework/usb/src/usb_device.c: 1665:             pBDTEntryEP0OutNext
      +                          ->STAT.Val = 0x00|(0x08 & 0x08)|0x04;
  4497  002000  C032  FFD9         	movff	_pBDTEntryEP0OutNext,fsr2l
  4498  002004  C033  FFDA         	movff	_pBDTEntryEP0OutNext+1,fsr2h
  4499  002008  0E0C               	movlw	12
  4500  00200A  6EDF               	movwf	indf2,c
  4501                           
  4502                           ; BSR set to: 0
  4503                           ;../../../../../../framework/usb/src/usb_device.c: 1666:             pBDTEntryEP0OutNext
      +                          ->STAT.Val |= 0x80;
  4504  00200C  C032  FFD9         	movff	_pBDTEntryEP0OutNext,fsr2l
  4505  002010  C033  FFDA         	movff	_pBDTEntryEP0OutNext+1,fsr2h
  4506  002014  0E00               	movlw	0
  4507  002016  8EDB               	bsf	plusw2,7,c
  4508                           
  4509                           ;../../../../../../framework/usb/src/usb_device.c: 1667:             pBDTEntryIn[0]->STA
      +                          T.Val = 0x04;
  4510  002018  C078  FFD9         	movff	_pBDTEntryIn,fsr2l
  4511  00201C  C079  FFDA         	movff	_pBDTEntryIn+1,fsr2h
  4512  002020  0E04               	movlw	4
  4513  002022  6EDF               	movwf	indf2,c
  4514                           
  4515                           ; BSR set to: 0
  4516                           ;../../../../../../framework/usb/src/usb_device.c: 1668:             pBDTEntryIn[0]->STA
      +                          T.Val |= 0x80;
  4517  002024  C078  FFD9         	movff	_pBDTEntryIn,fsr2l
  4518  002028  C079  FFDA         	movff	_pBDTEntryIn+1,fsr2h
  4519  00202C  0E00               	movlw	0
  4520  00202E  8EDB               	bsf	plusw2,7,c
  4521  002030  0012               	return	
  4522  002032                     i2l289:
  4523                           
  4524                           ; BSR set to: 0
  4525                           ;../../../../../../framework/usb/src/usb_device.c: 1672:     {;../../../../../../framewo
      +                          rk/usb/src/usb_device.c: 1673:   if(SetupPkt.DataDir == (0x80>>7))
  4526  002032  0104               	movlb	4	; () banked
  4527  002034  AF30               	btfss	48,7,b	;volatile
  4528  002036  D010               	goto	i2l3967
  4529                           
  4530                           ; BSR set to: 4
  4531                           ;../../../../../../framework/usb/src/usb_device.c: 1674:   {;../../../../../../framework
      +                          /usb/src/usb_device.c: 1675:    controlTransferState = 1;
  4532  002038  0E01               	movlw	1
  4533  00203A  6E43               	movwf	_controlTransferState,c	;volatile
  4534                           
  4535                           ;../../../../../../framework/usb/src/usb_device.c: 1689:    if(USBDeferINDataStagePacket
      +                          s == 0)
  4536  00203C  503A               	movf	_USBDeferINDataStagePackets,w,c	;volatile
  4537  00203E  B4D8               	btfsc	status,2,c
  4538                           
  4539                           ; BSR set to: 4
  4540                           ;../../../../../../framework/usb/src/usb_device.c: 1690:             {;../../../../../..
      +                          /framework/usb/src/usb_device.c: 1691:                 USBCtrlEPAllowDataStage();
  4541  002040  ECF0  F012         	call	_USBCtrlEPAllowDataStage	;wreg free
  4542  002044                     i2l3959:
  4543                           
  4544                           ;../../../../../../framework/usb/src/usb_device.c: 1714:             USBStatusStageEnabl
      +                          edFlag2 = 0;
  4545  002044  0E00               	movlw	0
  4546  002046  6E3B               	movwf	_USBStatusStageEnabledFlag2,c	;volatile
  4547                           
  4548                           ;../../../../../../framework/usb/src/usb_device.c: 1715:             USBStatusStageEnabl
      +                          edFlag1 = 0;
  4549  002048  0E00               	movlw	0
  4550  00204A  6E3C               	movwf	_USBStatusStageEnabledFlag1,c	;volatile
  4551                           
  4552                           ;../../../../../../framework/usb/src/usb_device.c: 1716:             if(USBDeferStatusSt
      +                          agePacket == 0)
  4553  00204C  503D               	movf	_USBDeferStatusStagePacket,w,c	;volatile
  4554  00204E  A4D8               	btfss	status,2,c
  4555  002050  0012               	return	
  4556                           
  4557                           ;../../../../../../framework/usb/src/usb_device.c: 1717:             {;../../../../../..
      +                          /framework/usb/src/usb_device.c: 1718:                 USBCtrlEPAllowStatusStage();
  4558  002052  EC1D  F011         	call	_USBCtrlEPAllowStatusStage	;wreg free
  4559  002056  0012               	return	
  4560  002058                     i2l3967:
  4561                           
  4562                           ; BSR set to: 4
  4563                           ;../../../../../../framework/usb/src/usb_device.c: 1722:   {;../../../../../../framework
      +                          /usb/src/usb_device.c: 1733:    controlTransferState = 2;
  4564  002058  0E02               	movlw	2
  4565  00205A  6E43               	movwf	_controlTransferState,c	;volatile
  4566                           
  4567                           ; BSR set to: 4
  4568                           ;../../../../../../framework/usb/src/usb_device.c: 1736:    pBDTEntryEP0OutNext->CNT = 8
      +                          ;
  4569  00205C  EE20 F001          	lfsr	2,1
  4570  002060  5032               	movf	_pBDTEntryEP0OutNext,w,c
  4571  002062  26D9               	addwf	fsr2l,f,c
  4572  002064  5033               	movf	_pBDTEntryEP0OutNext+1,w,c
  4573  002066  22DA               	addwfc	fsr2h,f,c
  4574  002068  0E08               	movlw	8
  4575  00206A  6EDF               	movwf	indf2,c
  4576                           
  4577                           ; BSR set to: 4
  4578                           ;../../../../../../framework/usb/src/usb_device.c: 1737:    pBDTEntryEP0OutNext->ADR = (
      +                          (uint16_t)(&SetupPkt));
  4579  00206C  EE20 F002          	lfsr	2,2
  4580  002070  5032               	movf	_pBDTEntryEP0OutNext,w,c
  4581  002072  26D9               	addwf	fsr2l,f,c
  4582  002074  5033               	movf	_pBDTEntryEP0OutNext+1,w,c
  4583  002076  22DA               	addwfc	fsr2h,f,c
  4584  002078  0E30               	movlw	48
  4585  00207A  6EDE               	movwf	postinc2,c
  4586  00207C  0E04               	movlw	4
  4587  00207E  6EDD               	movwf	postdec2,c
  4588                           
  4589                           ; BSR set to: 4
  4590                           ;../../../../../../framework/usb/src/usb_device.c: 1738:    pBDTEntryEP0OutNext->STAT.Va
      +                          l = 0x04;
  4591  002080  C032  FFD9         	movff	_pBDTEntryEP0OutNext,fsr2l
  4592  002084  C033  FFDA         	movff	_pBDTEntryEP0OutNext+1,fsr2h
  4593  002088  0E04               	movlw	4
  4594  00208A  6EDF               	movwf	indf2,c
  4595                           
  4596                           ; BSR set to: 4
  4597                           ;../../../../../../framework/usb/src/usb_device.c: 1739:             pBDTEntryEP0OutNext
      +                          ->STAT.Val |= 0x80;
  4598  00208C  C032  FFD9         	movff	_pBDTEntryEP0OutNext,fsr2l
  4599  002090  C033  FFDA         	movff	_pBDTEntryEP0OutNext+1,fsr2h
  4600  002094  0E00               	movlw	0
  4601  002096  8EDB               	bsf	plusw2,7,c
  4602  002098  D7D5               	goto	i2l3959
  4603  00209A                     __end_of_USBCtrlEPServiceComplete:
  4604                           	opt callstack 0
  4605                           
  4606 ;; *************** function _USBCtrlEPAllowDataStage *****************
  4607 ;; Defined at:
  4608 ;;		line 1492 in file "../../../../../../framework/usb/src/usb_device.c"
  4609 ;; Parameters:    Size  Location     Type
  4610 ;;		None
  4611 ;; Auto vars:     Size  Location     Type
  4612 ;;		None
  4613 ;; Return value:  Size  Location     Type
  4614 ;;                  1    wreg      void 
  4615 ;; Registers used:
  4616 ;;		wreg, fsr1l, fsr1h, fsr2l, fsr2h, status,2, status,0, tblptrl, tblptrh, tblptru, cstack
  4617 ;; Tracked objects:
  4618 ;;		On entry : 0/0
  4619 ;;		On exit  : 0/0
  4620 ;;		Unchanged: 0/0
  4621 ;; Data sizes:     COMRAM   BANK0   BANK1   BANK2   BANK3   BANK4   BANK5   BANK6   BANK7   BANK8   BANK9  BANK10  BANK1
      +1  BANK12  BANK13  BANK14
  4622 ;;      Params:         0       0       0       0       0       0       0       0       0       0       0       0       
      +0       0       0       0
  4623 ;;      Locals:         0       0       0       0       0       0       0       0       0       0       0       0       
      +0       0       0       0
  4624 ;;      Temps:          0       0       0       0       0       0       0       0       0       0       0       0       
      +0       0       0       0
  4625 ;;      Totals:         0       0       0       0       0       0       0       0       0       0       0       0       
      +0       0       0       0
  4626 ;;Total ram usage:        0 bytes
  4627 ;; Hardware stack levels used:    1
  4628 ;; Hardware stack levels required when called:    1
  4629 ;; This function calls:
  4630 ;;		_USBCtrlTrfTxService
  4631 ;; This function is called by:
  4632 ;;		_USBCtrlEPServiceComplete
  4633 ;; This function uses a non-reentrant model
  4634 ;;
  4635                           
  4636                           	psect	text25
  4637  0025E0                     __ptext25:
  4638                           	opt callstack 0
  4639  0025E0                     _USBCtrlEPAllowDataStage:
  4640                           	opt callstack 21
  4641                           
  4642                           ;../../../../../../framework/usb/src/usb_device.c: 1494:     USBDeferINDataStagePackets 
      +                          = 0;
  4643                           
  4644                           ;incstack = 0
  4645  0025E0  0E00               	movlw	0
  4646  0025E2  6E3A               	movwf	_USBDeferINDataStagePackets,c	;volatile
  4647                           
  4648                           ;../../../../../../framework/usb/src/usb_device.c: 1495:     USBDeferOUTDataStagePackets
      +                           = 0;
  4649  0025E4  0E00               	movlw	0
  4650  0025E6  6E39               	movwf	_USBDeferOUTDataStagePackets,c	;volatile
  4651                           
  4652                           ;../../../../../../framework/usb/src/usb_device.c: 1497:     if(controlTransferState == 
      +                          2)
  4653  0025E8  0E02               	movlw	2
  4654  0025EA  1843               	xorwf	_controlTransferState,w,c	;volatile
  4655  0025EC  A4D8               	btfss	status,2,c
  4656  0025EE  D01F               	goto	i2l3729
  4657                           
  4658                           ;../../../../../../framework/usb/src/usb_device.c: 1498:     {;../../../../../../framewo
      +                          rk/usb/src/usb_device.c: 1500:         pBDTEntryEP0OutNext->CNT = 8;
  4659  0025F0  EE20 F001          	lfsr	2,1
  4660  0025F4  5032               	movf	_pBDTEntryEP0OutNext,w,c
  4661  0025F6  26D9               	addwf	fsr2l,f,c
  4662  0025F8  5033               	movf	_pBDTEntryEP0OutNext+1,w,c
  4663  0025FA  22DA               	addwfc	fsr2h,f,c
  4664  0025FC  0E08               	movlw	8
  4665  0025FE  6EDF               	movwf	indf2,c
  4666                           
  4667                           ;../../../../../../framework/usb/src/usb_device.c: 1501:         pBDTEntryEP0OutNext->AD
      +                          R = ((uint16_t)(&CtrlTrfData));
  4668  002600  EE20 F002          	lfsr	2,2
  4669  002604  5032               	movf	_pBDTEntryEP0OutNext,w,c
  4670  002606  26D9               	addwf	fsr2l,f,c
  4671  002608  5033               	movf	_pBDTEntryEP0OutNext+1,w,c
  4672  00260A  22DA               	addwfc	fsr2h,f,c
  4673  00260C  0E38               	movlw	56
  4674  00260E  6EDE               	movwf	postinc2,c
  4675  002610  0E04               	movlw	4
  4676  002612  6EDD               	movwf	postdec2,c
  4677                           
  4678                           ;../../../../../../framework/usb/src/usb_device.c: 1502:         pBDTEntryEP0OutNext->ST
      +                          AT.Val = 0x40|(0x08 & 0x08);
  4679  002614  C032  FFD9         	movff	_pBDTEntryEP0OutNext,fsr2l
  4680  002618  C033  FFDA         	movff	_pBDTEntryEP0OutNext+1,fsr2h
  4681  00261C  0E48               	movlw	72
  4682  00261E  6EDF               	movwf	indf2,c
  4683                           
  4684                           ;../../../../../../framework/usb/src/usb_device.c: 1503:         pBDTEntryEP0OutNext->ST
      +                          AT.Val |= 0x80;
  4685  002620  C032  FFD9         	movff	_pBDTEntryEP0OutNext,fsr2l
  4686  002624  C033  FFDA         	movff	_pBDTEntryEP0OutNext+1,fsr2h
  4687  002628  0E00               	movlw	0
  4688  00262A  8EDB               	bsf	plusw2,7,c
  4689                           
  4690                           ;../../../../../../framework/usb/src/usb_device.c: 1504:     }
  4691  00262C  0012               	return	
  4692  00262E                     i2l3729:
  4693                           
  4694                           ;../../../../../../framework/usb/src/usb_device.c: 1506:     {;../../../../../../framewo
      +                          rk/usb/src/usb_device.c: 1509:   if(SetupPkt.wLength < inPipes[0].wCount.Val)
  4695  00262E  0100               	movlb	0	; () banked
  4696  002630  5176               	movf	(_inPipes+4)& (0+255),w,b	;volatile
  4697  002632  0104               	movlb	4	; () banked
  4698  002634  5D36               	subwf	54,w,b	;volatile
  4699  002636  0100               	movlb	0	; () banked
  4700  002638  5177               	movf	(_inPipes+5)& (0+255),w,b	;volatile
  4701  00263A  0104               	movlb	4	; () banked
  4702  00263C  5937               	subwfb	55,w,b	;volatile
  4703  00263E  B0D8               	btfsc	status,0,c
  4704  002640  D004               	goto	i2l3733
  4705                           
  4706                           ; BSR set to: 4
  4707                           ;../../../../../../framework/usb/src/usb_device.c: 1510:   {;../../../../../../framework
      +                          /usb/src/usb_device.c: 1511:    inPipes[0].wCount.Val = SetupPkt.wLength;
  4708  002642  C436 F076          	movff	1078,_inPipes+4	;volatile
  4709  002646  C437 F077          	movff	1079,_inPipes+5	;volatile
  4710  00264A                     i2l3733:
  4711                           
  4712                           ; BSR set to: 4
  4713                           ;../../../../../../framework/usb/src/usb_device.c: 1513:   USBCtrlTrfTxService();
  4714  00264A  ECB7  F010         	call	_USBCtrlTrfTxService	;wreg free
  4715                           
  4716                           ;../../../../../../framework/usb/src/usb_device.c: 1518:   pBDTEntryIn[0]->ADR = ((uint1
      +                          6_t)(&CtrlTrfData));
  4717  00264E  0100               	movlb	0	; () banked
  4718  002650  EE20 F002          	lfsr	2,2
  4719  002654  5178               	movf	_pBDTEntryIn& (0+255),w,b
  4720  002656  26D9               	addwf	fsr2l,f,c
  4721  002658  5179               	movf	(_pBDTEntryIn+1)& (0+255),w,b
  4722  00265A  22DA               	addwfc	fsr2h,f,c
  4723  00265C  0E38               	movlw	56
  4724  00265E  6EDE               	movwf	postinc2,c
  4725  002660  0E04               	movlw	4
  4726  002662  6EDD               	movwf	postdec2,c
  4727                           
  4728                           ; BSR set to: 0
  4729                           ;../../../../../../framework/usb/src/usb_device.c: 1519:   pBDTEntryIn[0]->STAT.Val = 0x
      +                          40|(0x08 & 0x08);
  4730  002664  C078  FFD9         	movff	_pBDTEntryIn,fsr2l
  4731  002668  C079  FFDA         	movff	_pBDTEntryIn+1,fsr2h
  4732  00266C  0E48               	movlw	72
  4733  00266E  6EDF               	movwf	indf2,c
  4734                           
  4735                           ; BSR set to: 0
  4736                           ;../../../../../../framework/usb/src/usb_device.c: 1520:         pBDTEntryIn[0]->STAT.Va
      +                          l |= 0x80;
  4737  002670  C078  FFD9         	movff	_pBDTEntryIn,fsr2l
  4738  002674  C079  FFDA         	movff	_pBDTEntryIn+1,fsr2h
  4739  002678  0E00               	movlw	0
  4740  00267A  8EDB               	bsf	plusw2,7,c
  4741  00267C  0012               	return		;funcret
  4742  00267E                     __end_of_USBCtrlEPAllowDataStage:
  4743                           	opt callstack 0
  4744                           
  4745 ;; *************** function _USBCheckStdRequest *****************
  4746 ;; Defined at:
  4747 ;;		line 2693 in file "../../../../../../framework/usb/src/usb_device.c"
  4748 ;; Parameters:    Size  Location     Type
  4749 ;;		None
  4750 ;; Auto vars:     Size  Location     Type
  4751 ;;		None
  4752 ;; Return value:  Size  Location     Type
  4753 ;;                  1    wreg      void 
  4754 ;; Registers used:
  4755 ;;		wreg, fsr1l, fsr1h, fsr2l, fsr2h, status,2, status,0, tblptrl, tblptrh, tblptru, prodl, prodh, cstack
  4756 ;; Tracked objects:
  4757 ;;		On entry : 0/0
  4758 ;;		On exit  : 0/0
  4759 ;;		Unchanged: 0/0
  4760 ;; Data sizes:     COMRAM   BANK0   BANK1   BANK2   BANK3   BANK4   BANK5   BANK6   BANK7   BANK8   BANK9  BANK10  BANK1
      +1  BANK12  BANK13  BANK14
  4761 ;;      Params:         0       0       0       0       0       0       0       0       0       0       0       0       
      +0       0       0       0
  4762 ;;      Locals:         0       0       0       0       0       0       0       0       0       0       0       0       
      +0       0       0       0
  4763 ;;      Temps:          2       0       0       0       0       0       0       0       0       0       0       0       
      +0       0       0       0
  4764 ;;      Totals:         2       0       0       0       0       0       0       0       0       0       0       0       
      +0       0       0       0
  4765 ;;Total ram usage:        2 bytes
  4766 ;; Hardware stack levels used:    1
  4767 ;; Hardware stack levels required when called:    5
  4768 ;; This function calls:
  4769 ;;		_USBStdFeatureReqHandler
  4770 ;;		_USBStdGetDscHandler
  4771 ;;		_USBStdGetStatusHandler
  4772 ;;		_USBStdSetCfgHandler
  4773 ;;		_USER_USB_CALLBACK_EVENT_HANDLER
  4774 ;; This function is called by:
  4775 ;;		_USBCtrlTrfSetupHandler
  4776 ;; This function uses a non-reentrant model
  4777 ;;
  4778                           
  4779                           	psect	text26
  4780  001ED6                     __ptext26:
  4781                           	opt callstack 0
  4782  001ED6                     _USBCheckStdRequest:
  4783                           	opt callstack 18
  4784                           
  4785                           ;../../../../../../framework/usb/src/usb_device.c: 2695:     if(SetupPkt.RequestType != 
      +                          (0x00>>5)) return;
  4786                           
  4787                           ;incstack = 0
  4788  001ED6  0104               	movlb	4	; () banked
  4789  001ED8  3930               	swapf	48,w,b	;volatile
  4790  001EDA  32E8               	rrcf	wreg,f,c
  4791  001EDC  0B03               	andlw	3
  4792  001EDE  0900               	iorlw	0
  4793  001EE0  A4D8               	btfss	status,2,c
  4794  001EE2  0012               	return	
  4795  001EE4  D042               	goto	i2l4065
  4796  001EE6                     i2l415:
  4797                           
  4798                           ; BSR set to: 4
  4799                           ;../../../../../../framework/usb/src/usb_device.c: 2700:             inPipes[0].info.bit
      +                          s.busy = 1;
  4800  001EE6  0100               	movlb	0	; () banked
  4801  001EE8  8F75               	bsf	(_inPipes+3)& (0+255),7,b	;volatile
  4802                           
  4803                           ; BSR set to: 0
  4804                           ;../../../../../../framework/usb/src/usb_device.c: 2701:             USBDeviceState = AD
      +                          R_PENDING_STATE;
  4805  001EEA  0E08               	movlw	8
  4806  001EEC  6E45               	movwf	_USBDeviceState,c	;volatile
  4807                           
  4808                           ;../../../../../../framework/usb/src/usb_device.c: 2703:             break;
  4809  001EEE  0012               	return	
  4810  001EF0                     i2l4035:
  4811                           
  4812                           ; BSR set to: 4
  4813                           ;../../../../../../framework/usb/src/usb_device.c: 2705:             USBStdGetDscHandler
      +                          ();
  4814  001EF0  EC6E  F00A         	call	_USBStdGetDscHandler	;wreg free
  4815                           
  4816                           ;../../../../../../framework/usb/src/usb_device.c: 2706:             break;
  4817  001EF4  0012               	return	
  4818  001EF6                     i2l4037:
  4819                           
  4820                           ; BSR set to: 4
  4821                           ;../../../../../../framework/usb/src/usb_device.c: 2708:             USBStdSetCfgHandler
      +                          ();
  4822  001EF6  EC4D  F010         	call	_USBStdSetCfgHandler	;wreg free
  4823                           
  4824                           ;../../../../../../framework/usb/src/usb_device.c: 2709:             break;
  4825  001EFA  0012               	return	
  4826  001EFC                     i2l4039:
  4827                           
  4828                           ; BSR set to: 4
  4829                           ;../../../../../../framework/usb/src/usb_device.c: 2711:             inPipes[0].pSrc.bRa
      +                          m = (uint8_t*)&USBActiveConfiguration;
  4830  001EFC  0E50               	movlw	low _USBActiveConfiguration
  4831  001EFE  0100               	movlb	0	; () banked
  4832  001F00  6F72               	movwf	_inPipes& (0+255),b	;volatile
  4833  001F02  0E00               	movlw	high _USBActiveConfiguration
  4834  001F04  6F73               	movwf	(_inPipes+1)& (0+255),b	;volatile
  4835                           
  4836                           ; BSR set to: 0
  4837                           ;../../../../../../framework/usb/src/usb_device.c: 2712:             inPipes[0].info.bit
      +                          s.ctrl_trf_mem = 0x01;
  4838  001F06  8175               	bsf	(_inPipes+3)& (0+255),0,b	;volatile
  4839                           
  4840                           ; BSR set to: 0
  4841                           ;../../../../../../framework/usb/src/usb_device.c: 2713:             inPipes[0].wCount.v
      +                          [0] = 1;
  4842  001F08  0E01               	movlw	1
  4843  001F0A  6F76               	movwf	(_inPipes+4)& (0+255),b	;volatile
  4844                           
  4845                           ; BSR set to: 0
  4846                           ;../../../../../../framework/usb/src/usb_device.c: 2714:             inPipes[0].info.bit
      +                          s.busy = 1;
  4847  001F0C  8F75               	bsf	(_inPipes+3)& (0+255),7,b	;volatile
  4848                           
  4849                           ;../../../../../../framework/usb/src/usb_device.c: 2715:             break;
  4850  001F0E  0012               	return	
  4851  001F10                     i2l4047:
  4852                           
  4853                           ; BSR set to: 4
  4854                           ;../../../../../../framework/usb/src/usb_device.c: 2717:             USBStdGetStatusHand
      +                          ler();
  4855  001F10  ECE1  F011         	call	_USBStdGetStatusHandler	;wreg free
  4856                           
  4857                           ;../../../../../../framework/usb/src/usb_device.c: 2718:             break;
  4858  001F14  0012               	return	
  4859  001F16                     i2l4049:
  4860                           
  4861                           ; BSR set to: 4
  4862                           ;../../../../../../framework/usb/src/usb_device.c: 2721:             USBStdFeatureReqHan
      +                          dler();
  4863  001F16  ECE6  F007         	call	_USBStdFeatureReqHandler	;wreg free
  4864                           
  4865                           ;../../../../../../framework/usb/src/usb_device.c: 2722:             break;
  4866  001F1A  0012               	return	
  4867  001F1C                     i2l4051:
  4868                           
  4869                           ; BSR set to: 4
  4870                           ;../../../../../../framework/usb/src/usb_device.c: 2724:             inPipes[0].pSrc.bRa
      +                          m = (uint8_t*)&USBAlternateInterface[SetupPkt.bIntfID];
  4871  001F1C  0E4D               	movlw	low _USBAlternateInterface
  4872  001F1E  2534               	addwf	52,w,b	;volatile
  4873  001F20  0100               	movlb	0	; () banked
  4874  001F22  6F72               	movwf	_inPipes& (0+255),b	;volatile
  4875  001F24  6B73               	clrf	(_inPipes+1)& (0+255),b	;volatile
  4876  001F26  0E00               	movlw	high _USBAlternateInterface
  4877  001F28  2373               	addwfc	(_inPipes+1)& (0+255),f,b	;volatile
  4878                           
  4879                           ; BSR set to: 0
  4880                           ;../../../../../../framework/usb/src/usb_device.c: 2725:             inPipes[0].info.bit
      +                          s.ctrl_trf_mem = 0x01;
  4881  001F2A  8175               	bsf	(_inPipes+3)& (0+255),0,b	;volatile
  4882                           
  4883                           ; BSR set to: 0
  4884                           ;../../../../../../framework/usb/src/usb_device.c: 2726:             inPipes[0].wCount.v
      +                          [0] = 1;
  4885  001F2C  0E01               	movlw	1
  4886  001F2E  6F76               	movwf	(_inPipes+4)& (0+255),b	;volatile
  4887                           
  4888                           ; BSR set to: 0
  4889                           ;../../../../../../framework/usb/src/usb_device.c: 2727:             inPipes[0].info.bit
      +                          s.busy = 1;
  4890  001F30  8F75               	bsf	(_inPipes+3)& (0+255),7,b	;volatile
  4891                           
  4892                           ;../../../../../../framework/usb/src/usb_device.c: 2728:             break;
  4893  001F32  0012               	return	
  4894  001F34                     i2l424:
  4895                           
  4896                           ; BSR set to: 4
  4897                           ;../../../../../../framework/usb/src/usb_device.c: 2730:             inPipes[0].info.bit
      +                          s.busy = 1;
  4898  001F34  0100               	movlb	0	; () banked
  4899  001F36  8F75               	bsf	(_inPipes+3)& (0+255),7,b	;volatile
  4900                           
  4901                           ; BSR set to: 0
  4902                           ;../../../../../../framework/usb/src/usb_device.c: 2731:             USBAlternateInterfa
      +                          ce[SetupPkt.bIntfID] = SetupPkt.bAltID;
  4903  001F38  0E4D               	movlw	low _USBAlternateInterface
  4904  001F3A  0104               	movlb	4	; () banked
  4905  001F3C  2534               	addwf	52,w,b	;volatile
  4906  001F3E  6ED9               	movwf	fsr2l,c
  4907  001F40  6ADA               	clrf	fsr2h,c
  4908  001F42  0E00               	movlw	high _USBAlternateInterface
  4909  001F44  22DA               	addwfc	fsr2h,f,c
  4910  001F46  C432 FFDF          	movff	1074,indf2	;volatile
  4911                           
  4912                           ;../../../../../../framework/usb/src/usb_device.c: 2732:             break;
  4913  001F4A  0012               	return	
  4914  001F4C                     i2l4061:
  4915                           
  4916                           ; BSR set to: 4
  4917                           ;../../../../../../framework/usb/src/usb_device.c: 2734:             USER_USB_CALLBACK_E
      +                          VENT_HANDLER((USB_EVENT)EVENT_SET_DESCRIPTOR,0,0);
  4918  001F4C  0E00               	movlw	0
  4919  001F4E  6E0E               	movwf	USER_USB_CALLBACK_EVENT_HANDLER@event+1,c
  4920  001F50  0E02               	movlw	2
  4921  001F52  6E0D               	movwf	USER_USB_CALLBACK_EVENT_HANDLER@event,c
  4922  001F54  0E00               	movlw	0
  4923  001F56  6E0F               	movwf	USER_USB_CALLBACK_EVENT_HANDLER@pdata,c
  4924  001F58  0E00               	movlw	0
  4925  001F5A  6E10               	movwf	USER_USB_CALLBACK_EVENT_HANDLER@pdata+1,c
  4926  001F5C  0E00               	movlw	0
  4927  001F5E  6E12               	movwf	USER_USB_CALLBACK_EVENT_HANDLER@size+1,c
  4928  001F60  0E00               	movlw	0
  4929  001F62  6E11               	movwf	USER_USB_CALLBACK_EVENT_HANDLER@size,c
  4930  001F64  EC65  F014         	call	_USER_USB_CALLBACK_EVENT_HANDLER	;wreg free
  4931                           
  4932                           ;../../../../../../framework/usb/src/usb_device.c: 2735:             break;
  4933  001F68  0012               	return	
  4934  001F6A                     i2l4065:
  4935                           
  4936                           ; BSR set to: 4
  4937  001F6A  5131               	movf	49,w,b	;volatile
  4938  001F6C  6E1C               	movwf	??_USBCheckStdRequest& (0+255),c
  4939  001F6E  6A1D               	clrf	(??_USBCheckStdRequest+1)& (0+255),c
  4940                           
  4941                           ; Switch on 2 bytes has been partitioned into a top level switch of size 1, and 1 sub-sw
      +                          itches
  4942                           ; Switch size 1, requested type "simple"
  4943                           ; Number of cases is 1, Range of values is 0 to 0
  4944                           ; switch strategies available:
  4945                           ; Name         Instructions Cycles
  4946                           ; simple_byte            4     3 (average)
  4947                           ;	Chosen strategy is simple_byte
  4948  001F70  501D               	movf	??_USBCheckStdRequest+1,w,c
  4949  001F72  0A00               	xorlw	0	; case 0
  4950  001F74  A4D8               	btfss	status,2,c
  4951  001F76  0012               	return	
  4952                           
  4953                           ; BSR set to: 4
  4954                           ; Switch size 1, requested type "simple"
  4955                           ; Number of cases is 11, Range of values is 0 to 12
  4956                           ; switch strategies available:
  4957                           ; Name         Instructions Cycles
  4958                           ; simple_byte           34    18 (average)
  4959                           ;	Chosen strategy is simple_byte
  4960  001F78  501C               	movf	??_USBCheckStdRequest,w,c
  4961  001F7A  0A00               	xorlw	0	; case 0
  4962  001F7C  B4D8               	btfsc	status,2,c
  4963  001F7E  D7C8               	goto	i2l4047
  4964  001F80  0A01               	xorlw	1	; case 1
  4965  001F82  B4D8               	btfsc	status,2,c
  4966  001F84  D7C8               	goto	i2l4049
  4967  001F86  0A02               	xorlw	2	; case 3
  4968  001F88  B4D8               	btfsc	status,2,c
  4969  001F8A  D7C5               	goto	i2l4049
  4970  001F8C  0A06               	xorlw	6	; case 5
  4971  001F8E  B4D8               	btfsc	status,2,c
  4972  001F90  D7AA               	goto	i2l415
  4973  001F92  0A03               	xorlw	3	; case 6
  4974  001F94  B4D8               	btfsc	status,2,c
  4975  001F96  D7AC               	goto	i2l4035
  4976  001F98  0A01               	xorlw	1	; case 7
  4977  001F9A  B4D8               	btfsc	status,2,c
  4978  001F9C  D7D7               	goto	i2l4061
  4979  001F9E  0A0F               	xorlw	15	; case 8
  4980  001FA0  B4D8               	btfsc	status,2,c
  4981  001FA2  D7AC               	goto	i2l4039
  4982  001FA4  0A01               	xorlw	1	; case 9
  4983  001FA6  B4D8               	btfsc	status,2,c
  4984  001FA8  D7A6               	goto	i2l4037
  4985  001FAA  0A03               	xorlw	3	; case 10
  4986  001FAC  B4D8               	btfsc	status,2,c
  4987  001FAE  D7B6               	goto	i2l4051
  4988  001FB0  0A01               	xorlw	1	; case 11
  4989  001FB2  B4D8               	btfsc	status,2,c
  4990  001FB4  D7BF               	goto	i2l424
  4991  001FB6  0A07               	xorlw	7	; case 12
  4992  001FB8  0012               	return	
  4993  001FBA                     __end_of_USBCheckStdRequest:
  4994                           	opt callstack 0
  4995                           
  4996 ;; *************** function _USBStdSetCfgHandler *****************
  4997 ;; Defined at:
  4998 ;;		line 1972 in file "../../../../../../framework/usb/src/usb_device.c"
  4999 ;; Parameters:    Size  Location     Type
  5000 ;;		None
  5001 ;; Auto vars:     Size  Location     Type
  5002 ;;  i               1   20[COMRAM] unsigned char 
  5003 ;; Return value:  Size  Location     Type
  5004 ;;                  1    wreg      void 
  5005 ;; Registers used:
  5006 ;;		wreg, fsr2l, fsr2h, status,2, status,0, prodl, prodh, cstack
  5007 ;; Tracked objects:
  5008 ;;		On entry : 0/0
  5009 ;;		On exit  : 0/0
  5010 ;;		Unchanged: 0/0
  5011 ;; Data sizes:     COMRAM   BANK0   BANK1   BANK2   BANK3   BANK4   BANK5   BANK6   BANK7   BANK8   BANK9  BANK10  BANK1
      +1  BANK12  BANK13  BANK14
  5012 ;;      Params:         0       0       0       0       0       0       0       0       0       0       0       0       
      +0       0       0       0
  5013 ;;      Locals:         1       0       0       0       0       0       0       0       0       0       0       0       
      +0       0       0       0
  5014 ;;      Temps:          0       0       0       0       0       0       0       0       0       0       0       0       
      +0       0       0       0
  5015 ;;      Totals:         1       0       0       0       0       0       0       0       0       0       0       0       
      +0       0       0       0
  5016 ;;Total ram usage:        1 bytes
  5017 ;; Hardware stack levels used:    1
  5018 ;; Hardware stack levels required when called:    4
  5019 ;; This function calls:
  5020 ;;		_USER_USB_CALLBACK_EVENT_HANDLER
  5021 ;;		i2_memset
  5022 ;; This function is called by:
  5023 ;;		_USBCheckStdRequest
  5024 ;; This function uses a non-reentrant model
  5025 ;;
  5026                           
  5027                           	psect	text27
  5028  00209A                     __ptext27:
  5029                           	opt callstack 0
  5030  00209A                     _USBStdSetCfgHandler:
  5031                           	opt callstack 18
  5032                           
  5033                           ;../../../../../../framework/usb/src/usb_device.c: 1974:     uint8_t i;;../../../../../.
      +                          ./framework/usb/src/usb_device.c: 1977:     inPipes[0].info.bits.busy = 1;
  5034                           
  5035                           ;incstack = 0
  5036  00209A  0100               	movlb	0	; () banked
  5037  00209C  8F75               	bsf	(_inPipes+3)& (0+255),7,b	;volatile
  5038                           
  5039                           ; BSR set to: 0
  5040                           ;../../../../../../framework/usb/src/usb_device.c: 1980:     memset((void*)&UEP1,0x00,(2
      +                          ));;
  5041  00209E  0E27               	movlw	39
  5042  0020A0  6E01               	movwf	i2memset@dest,c
  5043  0020A2  0E0F               	movlw	15
  5044  0020A4  6E02               	movwf	i2memset@dest+1,c
  5045  0020A6  0E00               	movlw	0
  5046  0020A8  6E04               	movwf	i2memset@c+1,c
  5047  0020AA  0E00               	movlw	0
  5048  0020AC  6E03               	movwf	i2memset@c,c
  5049  0020AE  0E00               	movlw	0
  5050  0020B0  6E06               	movwf	i2memset@n+1,c
  5051  0020B2  0E02               	movlw	2
  5052  0020B4  6E05               	movwf	i2memset@n,c
  5053  0020B6  EC3F  F00C         	call	i2_memset	;wreg free
  5054                           
  5055                           ;../../../../../../framework/usb/src/usb_device.c: 1983:     memset((void*)&BDT[0], 0x00
      +                          , sizeof(BDT));
  5056  0020BA  0E00               	movlw	0
  5057  0020BC  6E01               	movwf	i2memset@dest,c
  5058  0020BE  0E04               	movlw	4
  5059  0020C0  6E02               	movwf	i2memset@dest+1,c
  5060  0020C2  0E00               	movlw	0
  5061  0020C4  6E04               	movwf	i2memset@c+1,c
  5062  0020C6  0E00               	movlw	0
  5063  0020C8  6E03               	movwf	i2memset@c,c
  5064  0020CA  0E00               	movlw	0
  5065  0020CC  6E06               	movwf	i2memset@n+1,c
  5066  0020CE  0E30               	movlw	48
  5067  0020D0  6E05               	movwf	i2memset@n,c
  5068  0020D2  EC3F  F00C         	call	i2_memset	;wreg free
  5069                           
  5070                           ;../../../../../../framework/usb/src/usb_device.c: 1986:     UCONbits.PPBRST = 1;
  5071  0020D6  8C65               	bsf	3941,6,c	;volatile
  5072                           
  5073                           ;../../../../../../framework/usb/src/usb_device.c: 1991:  for(i = 0; i < (uint8_t)(2 +1u
      +                          ); i++)
  5074  0020D8  0E00               	movlw	0
  5075  0020DA  6E15               	movwf	USBStdSetCfgHandler@i,c
  5076  0020DC                     i2l3753:
  5077                           
  5078                           ;../../../../../../framework/usb/src/usb_device.c: 1992:  {;../../../../../../framework/
      +                          usb/src/usb_device.c: 1993:   ep_data_in[i].Val = 0u;
  5079  0020DC  0E91               	movlw	low _ep_data_in
  5080  0020DE  2415               	addwf	USBStdSetCfgHandler@i,w,c
  5081  0020E0  6ED9               	movwf	fsr2l,c
  5082  0020E2  6ADA               	clrf	fsr2h,c
  5083  0020E4  0E00               	movlw	high _ep_data_in
  5084  0020E6  22DA               	addwfc	fsr2h,f,c
  5085  0020E8  0E00               	movlw	0
  5086  0020EA  6EDF               	movwf	indf2,c
  5087                           
  5088                           ;../../../../../../framework/usb/src/usb_device.c: 1994:         ep_data_out[i].Val = 0u
      +                          ;
  5089  0020EC  0E8E               	movlw	low _ep_data_out
  5090  0020EE  2415               	addwf	USBStdSetCfgHandler@i,w,c
  5091  0020F0  6ED9               	movwf	fsr2l,c
  5092  0020F2  6ADA               	clrf	fsr2h,c
  5093  0020F4  0E00               	movlw	high _ep_data_out
  5094  0020F6  22DA               	addwfc	fsr2h,f,c
  5095  0020F8  0E00               	movlw	0
  5096  0020FA  6EDF               	movwf	indf2,c
  5097                           
  5098                           ;../../../../../../framework/usb/src/usb_device.c: 1995:  }
  5099  0020FC  2A15               	incf	USBStdSetCfgHandler@i,f,c
  5100  0020FE  0E02               	movlw	2
  5101  002100  6415               	cpfsgt	USBStdSetCfgHandler@i,c
  5102  002102  D7EC               	goto	i2l3753
  5103                           
  5104                           ;../../../../../../framework/usb/src/usb_device.c: 1998:     memset((void*)&USBAlternate
      +                          Interface,0x00,2);
  5105  002104  0E4D               	movlw	low _USBAlternateInterface
  5106  002106  6E01               	movwf	i2memset@dest,c
  5107  002108  0E00               	movlw	high _USBAlternateInterface
  5108  00210A  6E02               	movwf	i2memset@dest+1,c
  5109  00210C  0E00               	movlw	0
  5110  00210E  6E04               	movwf	i2memset@c+1,c
  5111  002110  0E00               	movlw	0
  5112  002112  6E03               	movwf	i2memset@c,c
  5113  002114  0E00               	movlw	0
  5114  002116  6E06               	movwf	i2memset@n+1,c
  5115  002118  0E02               	movlw	2
  5116  00211A  6E05               	movwf	i2memset@n,c
  5117  00211C  EC3F  F00C         	call	i2_memset	;wreg free
  5118                           
  5119                           ;../../../../../../framework/usb/src/usb_device.c: 2001:     UCONbits.PPBRST = 0;
  5120  002120  9C65               	bcf	3941,6,c	;volatile
  5121                           
  5122                           ;../../../../../../framework/usb/src/usb_device.c: 2003:     pBDTEntryIn[0] = (volatile 
      +                          BDT_ENTRY*)&BDT[2];
  5123  002122  0E08               	movlw	8
  5124  002124  0100               	movlb	0	; () banked
  5125  002126  6F78               	movwf	_pBDTEntryIn& (0+255),b
  5126  002128  0E04               	movlw	4
  5127  00212A  6F79               	movwf	(_pBDTEntryIn+1)& (0+255),b
  5128                           
  5129                           ; BSR set to: 0
  5130                           ;../../../../../../framework/usb/src/usb_device.c: 2006:     pBDTEntryEP0OutCurrent = (v
      +                          olatile BDT_ENTRY*)&BDT[0];
  5131  00212C  0E00               	movlw	0
  5132  00212E  6E34               	movwf	_pBDTEntryEP0OutCurrent,c
  5133  002130  0E04               	movlw	4
  5134  002132  6E35               	movwf	_pBDTEntryEP0OutCurrent+1,c
  5135                           
  5136                           ; BSR set to: 0
  5137                           ;../../../../../../framework/usb/src/usb_device.c: 2007:     pBDTEntryEP0OutNext = pBDTE
      +                          ntryEP0OutCurrent;
  5138  002134  C034  F032         	movff	_pBDTEntryEP0OutCurrent,_pBDTEntryEP0OutNext
  5139  002138  C035  F033         	movff	_pBDTEntryEP0OutCurrent+1,_pBDTEntryEP0OutNext+1
  5140                           
  5141                           ; BSR set to: 0
  5142                           ;../../../../../../framework/usb/src/usb_device.c: 2010:     USBActiveConfiguration = Se
      +                          tupPkt.bConfigurationValue;
  5143  00213C  C432 F050          	movff	1074,_USBActiveConfiguration	;volatile
  5144                           
  5145                           ; BSR set to: 0
  5146                           ;../../../../../../framework/usb/src/usb_device.c: 2013:     if(USBActiveConfiguration =
      +                          = 0)
  5147  002140  5050               	movf	_USBActiveConfiguration,w,c	;volatile
  5148  002142  A4D8               	btfss	status,2,c
  5149  002144  D003               	goto	i2l3775
  5150                           
  5151                           ; BSR set to: 0
  5152                           ;../../../../../../framework/usb/src/usb_device.c: 2014:     {;../../../../../../framewo
      +                          rk/usb/src/usb_device.c: 2016:         USBDeviceState = ADDRESS_STATE;
  5153  002146  0E10               	movlw	16
  5154  002148  6E45               	movwf	_USBDeviceState,c	;volatile
  5155                           
  5156                           ;../../../../../../framework/usb/src/usb_device.c: 2017:     }
  5157  00214A  0012               	return	
  5158  00214C                     i2l3775:
  5159                           
  5160                           ; BSR set to: 0
  5161                           ;../../../../../../framework/usb/src/usb_device.c: 2019:     {;../../../../../../framewo
      +                          rk/usb/src/usb_device.c: 2021:         USER_USB_CALLBACK_EVENT_HANDLER((USB_EVENT)EVENT_
      +                          CONFIGURED,(void*)&USBActiveConfiguration,1);
  5162  00214C  0E00               	movlw	0
  5163  00214E  6E0E               	movwf	USER_USB_CALLBACK_EVENT_HANDLER@event+1,c
  5164  002150  0E01               	movlw	1
  5165  002152  6E0D               	movwf	USER_USB_CALLBACK_EVENT_HANDLER@event,c
  5166  002154  0E50               	movlw	low _USBActiveConfiguration
  5167  002156  6E0F               	movwf	USER_USB_CALLBACK_EVENT_HANDLER@pdata,c
  5168  002158  0E00               	movlw	high _USBActiveConfiguration
  5169  00215A  6E10               	movwf	USER_USB_CALLBACK_EVENT_HANDLER@pdata+1,c
  5170  00215C  0E00               	movlw	0
  5171  00215E  6E12               	movwf	USER_USB_CALLBACK_EVENT_HANDLER@size+1,c
  5172  002160  0E01               	movlw	1
  5173  002162  6E11               	movwf	USER_USB_CALLBACK_EVENT_HANDLER@size,c
  5174  002164  EC65  F014         	call	_USER_USB_CALLBACK_EVENT_HANDLER	;wreg free
  5175                           
  5176                           ;../../../../../../framework/usb/src/usb_device.c: 2026:         USBDeviceState = CONFIG
      +                          URED_STATE;
  5177  002168  0E20               	movlw	32
  5178  00216A  6E45               	movwf	_USBDeviceState,c	;volatile
  5179  00216C  0012               	return		;funcret
  5180  00216E                     __end_of_USBStdSetCfgHandler:
  5181                           	opt callstack 0
  5182                           
  5183 ;; *************** function i2_memset *****************
  5184 ;; Defined at:
  5185 ;;		line 4 in file "C:\Program Files (x86)\Microchip\xc8\v2.05\pic\sources\c99\common\memset.c"
  5186 ;; Parameters:    Size  Location     Type
  5187 ;;  dest            2    0[COMRAM] PTR void 
  5188 ;;		 -> USBAlternateInterface(2), BDT(48), UEP1(1), 
  5189 ;;  c               2    2[COMRAM] int 
  5190 ;;  n               2    4[COMRAM] unsigned int 
  5191 ;; Auto vars:     Size  Location     Type
  5192 ;;  memset          2   10[COMRAM] PTR unsigned char 
  5193 ;;		 -> USBAlternateInterface(2), BDT(48), UEP1(1), 
  5194 ;;  memset          2    8[COMRAM] unsigned int 
  5195 ;; Return value:  Size  Location     Type
  5196 ;;                  2    0[COMRAM] PTR void 
  5197 ;; Registers used:
  5198 ;;		wreg, fsr2l, fsr2h, status,2, status,0
  5199 ;; Tracked objects:
  5200 ;;		On entry : 0/0
  5201 ;;		On exit  : 0/0
  5202 ;;		Unchanged: 0/0
  5203 ;; Data sizes:     COMRAM   BANK0   BANK1   BANK2   BANK3   BANK4   BANK5   BANK6   BANK7   BANK8   BANK9  BANK10  BANK1
      +1  BANK12  BANK13  BANK14
  5204 ;;      Params:         6       0       0       0       0       0       0       0       0       0       0       0       
      +0       0       0       0
  5205 ;;      Locals:         4       0       0       0       0       0       0       0       0       0       0       0       
      +0       0       0       0
  5206 ;;      Temps:          2       0       0       0       0       0       0       0       0       0       0       0       
      +0       0       0       0
  5207 ;;      Totals:        12       0       0       0       0       0       0       0       0       0       0       0       
      +0       0       0       0
  5208 ;;Total ram usage:       12 bytes
  5209 ;; Hardware stack levels used:    1
  5210 ;; This function calls:
  5211 ;;		Nothing
  5212 ;; This function is called by:
  5213 ;;		_USBStdSetCfgHandler
  5214 ;;		i2_USBDeviceInit
  5215 ;; This function uses a non-reentrant model
  5216 ;;
  5217                           
  5218                           	psect	text28
  5219  00187E                     __ptext28:
  5220                           	opt callstack 0
  5221  00187E                     i2_memset:
  5222                           	opt callstack 24
  5223                           
  5224                           ;incstack = 0
  5225  00187E  C001  F00B         	movff	i2memset@dest,i2memset@s
  5226  001882  C002  F00C         	movff	i2memset@dest+1,i2memset@s+1
  5227  001886  5005               	movf	i2memset@n,w,c
  5228  001888  1006               	iorwf	i2memset@n+1,w,c
  5229  00188A  B4D8               	btfsc	status,2,c
  5230  00188C  0012               	return	
  5231  00188E  C00B  FFD9         	movff	i2memset@s,fsr2l
  5232  001892  C00C  FFDA         	movff	i2memset@s+1,fsr2h
  5233  001896  C003  FFDF         	movff	i2memset@c,indf2
  5234  00189A  5005               	movf	i2memset@n,w,c
  5235  00189C  240B               	addwf	i2memset@s,w,c
  5236  00189E  6E07               	movwf	??i2_memset& (0+255),c
  5237  0018A0  5006               	movf	i2memset@n+1,w,c
  5238  0018A2  200C               	addwfc	i2memset@s+1,w,c
  5239  0018A4  6E08               	movwf	(??i2_memset+1)& (0+255),c
  5240  0018A6  0EFF               	movlw	255
  5241  0018A8  2407               	addwf	??i2_memset,w,c
  5242  0018AA  6ED9               	movwf	fsr2l,c
  5243  0018AC  0EFF               	movlw	255
  5244  0018AE  2008               	addwfc	??i2_memset+1,w,c
  5245  0018B0  6EDA               	movwf	fsr2h,c
  5246  0018B2  C003  FFDF         	movff	i2memset@c,indf2
  5247  0018B6  5006               	movf	i2memset@n+1,w,c
  5248  0018B8  E104               	bnz	i2l3663
  5249  0018BA  0E03               	movlw	3
  5250  0018BC  5C05               	subwf	i2memset@n,w,c
  5251  0018BE  A0D8               	btfss	status,0,c
  5252  0018C0  0012               	return	
  5253  0018C2                     i2l3663:
  5254  0018C2  EE20 F001          	lfsr	2,1
  5255  0018C6  500B               	movf	i2memset@s,w,c
  5256  0018C8  26D9               	addwf	fsr2l,f,c
  5257  0018CA  500C               	movf	i2memset@s+1,w,c
  5258  0018CC  22DA               	addwfc	fsr2h,f,c
  5259  0018CE  C003  FFDF         	movff	i2memset@c,indf2
  5260  0018D2  EE20 F002          	lfsr	2,2
  5261  0018D6  500B               	movf	i2memset@s,w,c
  5262  0018D8  26D9               	addwf	fsr2l,f,c
  5263  0018DA  500C               	movf	i2memset@s+1,w,c
  5264  0018DC  22DA               	addwfc	fsr2h,f,c
  5265  0018DE  C003  FFDF         	movff	i2memset@c,indf2
  5266  0018E2  5005               	movf	i2memset@n,w,c
  5267  0018E4  240B               	addwf	i2memset@s,w,c
  5268  0018E6  6E07               	movwf	??i2_memset& (0+255),c
  5269  0018E8  5006               	movf	i2memset@n+1,w,c
  5270  0018EA  200C               	addwfc	i2memset@s+1,w,c
  5271  0018EC  6E08               	movwf	(??i2_memset+1)& (0+255),c
  5272  0018EE  0EFE               	movlw	254
  5273  0018F0  2407               	addwf	??i2_memset,w,c
  5274  0018F2  6ED9               	movwf	fsr2l,c
  5275  0018F4  0EFF               	movlw	255
  5276  0018F6  2008               	addwfc	??i2_memset+1,w,c
  5277  0018F8  6EDA               	movwf	fsr2h,c
  5278  0018FA  C003  FFDF         	movff	i2memset@c,indf2
  5279  0018FE  5005               	movf	i2memset@n,w,c
  5280  001900  240B               	addwf	i2memset@s,w,c
  5281  001902  6E07               	movwf	??i2_memset& (0+255),c
  5282  001904  5006               	movf	i2memset@n+1,w,c
  5283  001906  200C               	addwfc	i2memset@s+1,w,c
  5284  001908  6E08               	movwf	(??i2_memset+1)& (0+255),c
  5285  00190A  0EFD               	movlw	253
  5286  00190C  2407               	addwf	??i2_memset,w,c
  5287  00190E  6ED9               	movwf	fsr2l,c
  5288  001910  0EFF               	movlw	255
  5289  001912  2008               	addwfc	??i2_memset+1,w,c
  5290  001914  6EDA               	movwf	fsr2h,c
  5291  001916  C003  FFDF         	movff	i2memset@c,indf2
  5292  00191A  5006               	movf	i2memset@n+1,w,c
  5293  00191C  E104               	bnz	i2l3669
  5294  00191E  0E07               	movlw	7
  5295  001920  5C05               	subwf	i2memset@n,w,c
  5296  001922  A0D8               	btfss	status,0,c
  5297  001924  0012               	return	
  5298  001926                     i2l3669:
  5299  001926  EE20 F003          	lfsr	2,3
  5300  00192A  500B               	movf	i2memset@s,w,c
  5301  00192C  26D9               	addwf	fsr2l,f,c
  5302  00192E  500C               	movf	i2memset@s+1,w,c
  5303  001930  22DA               	addwfc	fsr2h,f,c
  5304  001932  C003  FFDF         	movff	i2memset@c,indf2
  5305  001936  5005               	movf	i2memset@n,w,c
  5306  001938  240B               	addwf	i2memset@s,w,c
  5307  00193A  6E07               	movwf	??i2_memset& (0+255),c
  5308  00193C  5006               	movf	i2memset@n+1,w,c
  5309  00193E  200C               	addwfc	i2memset@s+1,w,c
  5310  001940  6E08               	movwf	(??i2_memset+1)& (0+255),c
  5311  001942  0EFC               	movlw	252
  5312  001944  2407               	addwf	??i2_memset,w,c
  5313  001946  6ED9               	movwf	fsr2l,c
  5314  001948  0EFF               	movlw	255
  5315  00194A  2008               	addwfc	??i2_memset+1,w,c
  5316  00194C  6EDA               	movwf	fsr2h,c
  5317  00194E  C003  FFDF         	movff	i2memset@c,indf2
  5318  001952  5006               	movf	i2memset@n+1,w,c
  5319  001954  E104               	bnz	i2l3675
  5320  001956  0E09               	movlw	9
  5321  001958  5C05               	subwf	i2memset@n,w,c
  5322  00195A  A0D8               	btfss	status,0,c
  5323  00195C  0012               	return	
  5324  00195E                     i2l3675:
  5325  00195E  C00B  F007         	movff	i2memset@s,??i2_memset
  5326  001962  C00C  F008         	movff	i2memset@s+1,??i2_memset+1
  5327  001966  1E07               	comf	??i2_memset,f,c
  5328  001968  1E08               	comf	??i2_memset+1,f,c
  5329  00196A  4A07               	infsnz	??i2_memset,f,c
  5330  00196C  2A08               	incf	??i2_memset+1,f,c
  5331  00196E  0E03               	movlw	3
  5332  001970  1407               	andwf	??i2_memset,w,c
  5333  001972  6E09               	movwf	i2memset@k,c
  5334  001974  6A0A               	clrf	i2memset@k+1,c
  5335  001976  5009               	movf	i2memset@k,w,c
  5336  001978  260B               	addwf	i2memset@s,f,c
  5337  00197A  500A               	movf	i2memset@k+1,w,c
  5338  00197C  220C               	addwfc	i2memset@s+1,f,c
  5339  00197E  5009               	movf	i2memset@k,w,c
  5340  001980  5E05               	subwf	i2memset@n,f,c
  5341  001982  500A               	movf	i2memset@k+1,w,c
  5342  001984  5A06               	subwfb	i2memset@n+1,f,c
  5343  001986  0EFC               	movlw	252
  5344  001988  1605               	andwf	i2memset@n,f,c
  5345  00198A  0EFF               	movlw	255
  5346  00198C  1606               	andwf	i2memset@n+1,f,c
  5347  00198E  D00B               	goto	i2l3683
  5348  001990                     i2l3677:
  5349  001990  C00B  FFD9         	movff	i2memset@s,fsr2l
  5350  001994  C00C  FFDA         	movff	i2memset@s+1,fsr2h
  5351  001998  C003  FFDF         	movff	i2memset@c,indf2
  5352  00199C  0605               	decf	i2memset@n,f,c
  5353  00199E  A0D8               	btfss	status,0,c
  5354  0019A0  0606               	decf	i2memset@n+1,f,c
  5355  0019A2  4A0B               	infsnz	i2memset@s,f,c
  5356  0019A4  2A0C               	incf	i2memset@s+1,f,c
  5357  0019A6                     i2l3683:
  5358  0019A6  5005               	movf	i2memset@n,w,c
  5359  0019A8  1006               	iorwf	i2memset@n+1,w,c
  5360  0019AA  B4D8               	btfsc	status,2,c
  5361  0019AC  0012               	return	
  5362  0019AE  D7F0               	goto	i2l3677
  5363  0019B0                     __end_ofi2_memset:
  5364                           	opt callstack 0
  5365                           
  5366 ;; *************** function _USBStdGetStatusHandler *****************
  5367 ;; Defined at:
  5368 ;;		line 2133 in file "../../../../../../framework/usb/src/usb_device.c"
  5369 ;; Parameters:    Size  Location     Type
  5370 ;;		None
  5371 ;; Auto vars:     Size  Location     Type
  5372 ;;  p               2    2[COMRAM] PTR struct __BDT
  5373 ;;		 -> RAM(3775), NULL(0), BDT(48), 
  5374 ;; Return value:  Size  Location     Type
  5375 ;;                  1    wreg      void 
  5376 ;; Registers used:
  5377 ;;		wreg, fsr2l, fsr2h, status,2, status,0, prodl, prodh
  5378 ;; Tracked objects:
  5379 ;;		On entry : 0/0
  5380 ;;		On exit  : 0/0
  5381 ;;		Unchanged: 0/0
  5382 ;; Data sizes:     COMRAM   BANK0   BANK1   BANK2   BANK3   BANK4   BANK5   BANK6   BANK7   BANK8   BANK9  BANK10  BANK1
      +1  BANK12  BANK13  BANK14
  5383 ;;      Params:         0       0       0       0       0       0       0       0       0       0       0       0       
      +0       0       0       0
  5384 ;;      Locals:         2       0       0       0       0       0       0       0       0       0       0       0       
      +0       0       0       0
  5385 ;;      Temps:          2       0       0       0       0       0       0       0       0       0       0       0       
      +0       0       0       0
  5386 ;;      Totals:         4       0       0       0       0       0       0       0       0       0       0       0       
      +0       0       0       0
  5387 ;;Total ram usage:        4 bytes
  5388 ;; Hardware stack levels used:    1
  5389 ;; This function calls:
  5390 ;;		Nothing
  5391 ;; This function is called by:
  5392 ;;		_USBCheckStdRequest
  5393 ;; This function uses a non-reentrant model
  5394 ;;
  5395                           
  5396                           	psect	text29
  5397  0023C2                     __ptext29:
  5398                           	opt callstack 0
  5399  0023C2                     _USBStdGetStatusHandler:
  5400                           	opt callstack 22
  5401                           
  5402                           ;../../../../../../framework/usb/src/usb_device.c: 2135:     CtrlTrfData[0] = 0;
  5403                           
  5404                           ;incstack = 0
  5405  0023C2  0E00               	movlw	0
  5406  0023C4  0104               	movlb	4	; () banked
  5407  0023C6  6F38               	movwf	56,b	;volatile
  5408                           
  5409                           ;../../../../../../framework/usb/src/usb_device.c: 2136:     CtrlTrfData[1] = 0;
  5410  0023C8  0E00               	movlw	0
  5411  0023CA  6F39               	movwf	57,b	;volatile
  5412                           
  5413                           ;../../../../../../framework/usb/src/usb_device.c: 2138:     switch(SetupPkt.Recipient)
  5414  0023CC  D03D               	goto	i2l3839
  5415  0023CE                     i2l352:
  5416                           
  5417                           ; BSR set to: 4
  5418                           ;../../../../../../framework/usb/src/usb_device.c: 2141:             inPipes[0].info.bit
      +                          s.busy = 1;
  5419  0023CE  0100               	movlb	0	; () banked
  5420  0023D0  8F75               	bsf	(_inPipes+3)& (0+255),7,b	;volatile
  5421                           
  5422                           ; BSR set to: 0
  5423                           ;../../../../../../framework/usb/src/usb_device.c: 2151:             if(RemoteWakeup == 
      +                          1)
  5424                           
  5425                           ;../../../../../../framework/usb/src/usb_device.c: 2146:             if(0 == 1)
  5426  0023D2  0442               	decf	_RemoteWakeup,w,c	;volatile
  5427  0023D4  A4D8               	btfss	status,2,c
  5428  0023D6  D04A               	goto	i2l355
  5429                           
  5430                           ; BSR set to: 0
  5431                           ;../../../../../../framework/usb/src/usb_device.c: 2152:             {;../../../../../..
      +                          /framework/usb/src/usb_device.c: 2153:                 CtrlTrfData[0]|=0x02;
  5432  0023D8  0104               	movlb	4	; () banked
  5433  0023DA  8338               	bsf	56,1,b	;volatile
  5434  0023DC  D047               	goto	i2l355
  5435  0023DE                     i2l356:
  5436                           
  5437                           ; BSR set to: 4
  5438                           ;../../../../../../framework/usb/src/usb_device.c: 2157:             inPipes[0].info.bit
      +                          s.busy = 1;
  5439  0023DE  0100               	movlb	0	; () banked
  5440  0023E0  8F75               	bsf	(_inPipes+3)& (0+255),7,b	;volatile
  5441                           
  5442                           ;../../../../../../framework/usb/src/usb_device.c: 2158:             break;
  5443  0023E2  D044               	goto	i2l355
  5444  0023E4                     i2l357:
  5445                           
  5446                           ; BSR set to: 4
  5447                           ;../../../../../../framework/usb/src/usb_device.c: 2160:             inPipes[0].info.bit
      +                          s.busy = 1;
  5448  0023E4  0100               	movlb	0	; () banked
  5449  0023E6  8F75               	bsf	(_inPipes+3)& (0+255),7,b	;volatile
  5450                           
  5451                           ; BSR set to: 0
  5452                           ;../../../../../../framework/usb/src/usb_device.c: 2164:             if(SetupPkt.EPNum !
      +                          = 0)
  5453  0023E8  0104               	movlb	4	; () banked
  5454  0023EA  5134               	movf	52,w,b	;volatile
  5455  0023EC  0B0F               	andlw	15
  5456  0023EE  0900               	iorlw	0
  5457  0023F0  B4D8               	btfsc	status,2,c
  5458  0023F2  D03C               	goto	i2l355
  5459                           
  5460                           ; BSR set to: 4
  5461                           ;../../../../../../framework/usb/src/usb_device.c: 2165:             {;../../../../../..
      +                          /framework/usb/src/usb_device.c: 2166:                 BDT_ENTRY *p;;../../../../../../f
      +                          ramework/usb/src/usb_device.c: 2168:                 if(SetupPkt.EPDir == 0)
  5462  0023F4  BF34               	btfsc	52,7,b	;volatile
  5463  0023F6  D00A               	goto	i2l3829
  5464                           
  5465                           ; BSR set to: 4
  5466                           ;../../../../../../framework/usb/src/usb_device.c: 2169:                 {;../../../../.
      +                          ./../framework/usb/src/usb_device.c: 2170:                     p = (BDT_ENTRY*)pBDTEntry
      +                          Out[SetupPkt.EPNum];
  5467  0023F8  5134               	movf	52,w,b	;volatile
  5468  0023FA  0B0F               	andlw	15
  5469  0023FC  6E01               	movwf	??_USBStdGetStatusHandler& (0+255),c
  5470  0023FE  5001               	movf	??_USBStdGetStatusHandler,w,c
  5471  002400  0D02               	mullw	2
  5472  002402  0E7E               	movlw	low _pBDTEntryOut
  5473  002404  24F3               	addwf	prodl,w,c
  5474  002406  6ED9               	movwf	fsr2l,c
  5475  002408  0E00               	movlw	high _pBDTEntryOut
  5476  00240A  D009               	goto	L6
  5477  00240C                     i2l3829:
  5478                           
  5479                           ; BSR set to: 4
  5480                           ;../../../../../../framework/usb/src/usb_device.c: 2173:                 {;../../../../.
      +                          ./../framework/usb/src/usb_device.c: 2174:                     p = (BDT_ENTRY*)pBDTEntry
      +                          In[SetupPkt.EPNum];
  5481  00240C  5134               	movf	52,w,b	;volatile
  5482  00240E  0B0F               	andlw	15
  5483  002410  6E01               	movwf	??_USBStdGetStatusHandler& (0+255),c
  5484  002412  5001               	movf	??_USBStdGetStatusHandler,w,c
  5485  002414  0D02               	mullw	2
  5486  002416  0E78               	movlw	low _pBDTEntryIn
  5487  002418  24F3               	addwf	prodl,w,c
  5488  00241A  6ED9               	movwf	fsr2l,c
  5489  00241C  0E00               	movlw	high _pBDTEntryIn
  5490  00241E                     L6:
  5491  00241E  20F4               	addwfc	prodh,w,c
  5492  002420  6EDA               	movwf	fsr2h,c
  5493  002422  CFDE F003          	movff	postinc2,USBStdGetStatusHandler@p
  5494  002426  CFDD F004          	movff	postdec2,USBStdGetStatusHandler@p+1
  5495                           
  5496                           ; BSR set to: 4
  5497                           ;../../../../../../framework/usb/src/usb_device.c: 2177:                 if((p->STAT.UOW
      +                          N == 1) && (p->STAT.BSTALL == 1))
  5498  00242A  C003  FFD9         	movff	USBStdGetStatusHandler@p,fsr2l
  5499  00242E  C004  FFDA         	movff	USBStdGetStatusHandler@p+1,fsr2h
  5500  002432  AEDF               	btfss	indf2,7,c
  5501  002434  D01B               	goto	i2l355
  5502                           
  5503                           ; BSR set to: 4
  5504  002436  C003  FFD9         	movff	USBStdGetStatusHandler@p,fsr2l
  5505  00243A  C004  FFDA         	movff	USBStdGetStatusHandler@p+1,fsr2h
  5506  00243E  A4DF               	btfss	indf2,2,c
  5507  002440  D015               	goto	i2l355
  5508                           
  5509                           ; BSR set to: 4
  5510                           ;../../../../../../framework/usb/src/usb_device.c: 2178:                 {;../../../../.
      +                          ./../framework/usb/src/usb_device.c: 2179:                     CtrlTrfData[0]=0x01;
  5511  002442  0E01               	movlw	1
  5512  002444  6F38               	movwf	56,b	;volatile
  5513  002446  D012               	goto	i2l355
  5514  002448                     i2l3839:
  5515                           
  5516                           ; BSR set to: 4
  5517  002448  5130               	movf	48,w,b	;volatile
  5518  00244A  0B1F               	andlw	31
  5519  00244C  6E01               	movwf	??_USBStdGetStatusHandler& (0+255),c
  5520  00244E  6A02               	clrf	(??_USBStdGetStatusHandler+1)& (0+255),c
  5521                           
  5522                           ; Switch on 2 bytes has been partitioned into a top level switch of size 1, and 1 sub-sw
      +                          itches
  5523                           ; Switch size 1, requested type "simple"
  5524                           ; Number of cases is 1, Range of values is 0 to 0
  5525                           ; switch strategies available:
  5526                           ; Name         Instructions Cycles
  5527                           ; simple_byte            4     3 (average)
  5528                           ;	Chosen strategy is simple_byte
  5529  002450  5002               	movf	??_USBStdGetStatusHandler+1,w,c
  5530  002452  0A00               	xorlw	0	; case 0
  5531  002454  A4D8               	btfss	status,2,c
  5532  002456  D00A               	goto	i2l355
  5533                           
  5534                           ; BSR set to: 4
  5535                           ; Switch size 1, requested type "simple"
  5536                           ; Number of cases is 3, Range of values is 0 to 2
  5537                           ; switch strategies available:
  5538                           ; Name         Instructions Cycles
  5539                           ; simple_byte           10     6 (average)
  5540                           ;	Chosen strategy is simple_byte
  5541  002458  5001               	movf	??_USBStdGetStatusHandler,w,c
  5542  00245A  0A00               	xorlw	0	; case 0
  5543  00245C  B4D8               	btfsc	status,2,c
  5544  00245E  D7B7               	goto	i2l352
  5545  002460  0A01               	xorlw	1	; case 1
  5546  002462  B4D8               	btfsc	status,2,c
  5547  002464  D7BC               	goto	i2l356
  5548  002466  0A03               	xorlw	3	; case 2
  5549  002468  B4D8               	btfsc	status,2,c
  5550  00246A  D7BC               	goto	i2l357
  5551  00246C                     i2l355:
  5552                           
  5553                           ;../../../../../../framework/usb/src/usb_device.c: 2185:     if(inPipes[0].info.bits.bus
      +                          y == 1)
  5554  00246C  0100               	movlb	0	; () banked
  5555  00246E  AF75               	btfss	(_inPipes+3)& (0+255),7,b	;volatile
  5556  002470  0012               	return	
  5557                           
  5558                           ; BSR set to: 0
  5559                           ;../../../../../../framework/usb/src/usb_device.c: 2186:     {;../../../../../../framewo
      +                          rk/usb/src/usb_device.c: 2187:         inPipes[0].pSrc.bRam = (uint8_t*)&CtrlTrfData;
  5560  002472  0E38               	movlw	56
  5561  002474  6F72               	movwf	_inPipes& (0+255),b	;volatile
  5562  002476  0E04               	movlw	4
  5563  002478  6F73               	movwf	(_inPipes+1)& (0+255),b	;volatile
  5564                           
  5565                           ; BSR set to: 0
  5566                           ;../../../../../../framework/usb/src/usb_device.c: 2188:         inPipes[0].info.bits.ct
      +                          rl_trf_mem = 0x01;
  5567  00247A  8175               	bsf	(_inPipes+3)& (0+255),0,b	;volatile
  5568                           
  5569                           ; BSR set to: 0
  5570                           ;../../../../../../framework/usb/src/usb_device.c: 2189:         inPipes[0].wCount.v[0] 
      +                          = 2;
  5571  00247C  0E02               	movlw	2
  5572  00247E  6F76               	movwf	(_inPipes+4)& (0+255),b	;volatile
  5573                           
  5574                           ; BSR set to: 0
  5575  002480  0012               	return		;funcret
  5576  002482                     __end_of_USBStdGetStatusHandler:
  5577                           	opt callstack 0
  5578                           
  5579 ;; *************** function _USBStdGetDscHandler *****************
  5580 ;; Defined at:
  5581 ;;		line 2047 in file "../../../../../../framework/usb/src/usb_device.c"
  5582 ;; Parameters:    Size  Location     Type
  5583 ;;		None
  5584 ;; Auto vars:     Size  Location     Type
  5585 ;;		None
  5586 ;; Return value:  Size  Location     Type
  5587 ;;                  1    wreg      void 
  5588 ;; Registers used:
  5589 ;;		wreg, fsr1l, fsr1h, status,2, status,0, tblptrl, tblptrh, tblptru, prodl, prodh
  5590 ;; Tracked objects:
  5591 ;;		On entry : 0/0
  5592 ;;		On exit  : 0/0
  5593 ;;		Unchanged: 0/0
  5594 ;; Data sizes:     COMRAM   BANK0   BANK1   BANK2   BANK3   BANK4   BANK5   BANK6   BANK7   BANK8   BANK9  BANK10  BANK1
      +1  BANK12  BANK13  BANK14
  5595 ;;      Params:         0       0       0       0       0       0       0       0       0       0       0       0       
      +0       0       0       0
  5596 ;;      Locals:         0       0       0       0       0       0       0       0       0       0       0       0       
      +0       0       0       0
  5597 ;;      Temps:          2       0       0       0       0       0       0       0       0       0       0       0       
      +0       0       0       0
  5598 ;;      Totals:         2       0       0       0       0       0       0       0       0       0       0       0       
      +0       0       0       0
  5599 ;;Total ram usage:        2 bytes
  5600 ;; Hardware stack levels used:    1
  5601 ;; This function calls:
  5602 ;;		Nothing
  5603 ;; This function is called by:
  5604 ;;		_USBCheckStdRequest
  5605 ;; This function uses a non-reentrant model
  5606 ;;
  5607                           
  5608                           	psect	text30
  5609  0014DC                     __ptext30:
  5610                           	opt callstack 0
  5611  0014DC                     _USBStdGetDscHandler:
  5612                           	opt callstack 22
  5613                           
  5614                           ;../../../../../../framework/usb/src/usb_device.c: 2049:     if(SetupPkt.bmRequestType =
      +                          = 0x80)
  5615                           
  5616                           ; BSR set to: 0
  5617                           ;incstack = 0
  5618  0014DC  0E80               	movlw	128
  5619  0014DE  0104               	movlb	4	; () banked
  5620  0014E0  1930               	xorwf	48,w,b	;volatile
  5621  0014E2  A4D8               	btfss	status,2,c
  5622  0014E4  0012               	return	
  5623                           
  5624                           ; BSR set to: 4
  5625                           ;../../../../../../framework/usb/src/usb_device.c: 2050:     {;../../../../../../framewo
      +                          rk/usb/src/usb_device.c: 2051:         inPipes[0].info.Val = 0x00 | 0x80 | 0x40;
  5626  0014E6  0EC0               	movlw	192
  5627  0014E8  0100               	movlb	0	; () banked
  5628  0014EA  6F75               	movwf	(_inPipes+3)& (0+255),b	;volatile
  5629                           
  5630                           ;../../../../../../framework/usb/src/usb_device.c: 2053:         switch(SetupPkt.bDescri
      +                          ptorType)
  5631  0014EC  D080               	goto	i2l3809
  5632  0014EE                     i2l3783:
  5633                           
  5634                           ; BSR set to: 4
  5635                           ;../../../../../../framework/usb/src/usb_device.c: 2059:                     inPipes[0].
      +                          pSrc.bRom = (const uint8_t*)&device_dsc;
  5636  0014EE  0EB4               	movlw	low _device_dsc
  5637  0014F0  0100               	movlb	0	; () banked
  5638  0014F2  6F72               	movwf	_inPipes& (0+255),b	;volatile
  5639  0014F4  0E0F               	movlw	high _device_dsc
  5640  0014F6  6F73               	movwf	(_inPipes+1)& (0+255),b	;volatile
  5641                           
  5642                           ; BSR set to: 0
  5643                           ;../../../../../../framework/usb/src/usb_device.c: 2061:                 inPipes[0].wCou
      +                          nt.Val = sizeof(device_dsc);
  5644  0014F8  0E00               	movlw	0
  5645  0014FA  6F77               	movwf	(_inPipes+5)& (0+255),b	;volatile
  5646  0014FC  0E12               	movlw	18
  5647  0014FE  6F76               	movwf	(_inPipes+4)& (0+255),b	;volatile
  5648                           
  5649                           ;../../../../../../framework/usb/src/usb_device.c: 2062:                 break;
  5650  001500  0012               	return	
  5651  001502                     i2l3787:
  5652                           
  5653                           ; BSR set to: 4
  5654                           ;../../../../../../framework/usb/src/usb_device.c: 2067:                 if(SetupPkt.bDs
      +                          cIndex < 1)
  5655  001502  5132               	movf	50,w,b	;volatile
  5656  001504  A4D8               	btfss	status,2,c
  5657  001506  D040               	goto	i2l3795
  5658                           
  5659                           ; BSR set to: 4
  5660                           ;../../../../../../framework/usb/src/usb_device.c: 2068:                 {;../../../../.
      +                          ./../framework/usb/src/usb_device.c: 2072:                         inPipes[0].pSrc.bRom 
      +                          = *(USB_CD_Ptr+SetupPkt.bDscIndex);
  5661  001508  5132               	movf	50,w,b	;volatile
  5662  00150A  0D02               	mullw	2
  5663  00150C  0E07               	movlw	low _USB_CD_Ptr
  5664  00150E  24F3               	addwf	prodl,w,c
  5665  001510  6EF6               	movwf	tblptrl,c
  5666  001512  0E0F               	movlw	high _USB_CD_Ptr
  5667  001514  20F4               	addwfc	prodh,w,c
  5668  001516  6EF7               	movwf	tblptrh,c
  5669  001518                     	if	0	;There are less than 3 active tblptr bytes
  5670  001518                     	endif
  5671  001518  0009               	tblrd		*+
  5672  00151A  CFF5 F072          	movff	tablat,_inPipes	;volatile
  5673  00151E  000A               	tblrd		*-
  5674  001520  CFF5 F073          	movff	tablat,_inPipes+1	;volatile
  5675                           
  5676                           ; BSR set to: 4
  5677                           ;../../../../../../framework/usb/src/usb_device.c: 2078:                     inPipes[0].
      +                          wCount.byte.LB = *(inPipes[0].pSrc.bRom+2);
  5678  001524  0E02               	movlw	2
  5679  001526  0100               	movlb	0	; () banked
  5680  001528  2572               	addwf	_inPipes& (0+255),w,b	;volatile
  5681  00152A  6E01               	movwf	??_USBStdGetDscHandler& (0+255),c
  5682  00152C  0E00               	movlw	0
  5683  00152E  2173               	addwfc	(_inPipes+1)& (0+255),w,b	;volatile
  5684  001530  6E02               	movwf	(??_USBStdGetDscHandler+1)& (0+255),c
  5685  001532  C001  FFF6         	movff	??_USBStdGetDscHandler,tblptrl
  5686  001536  C002  FFF7         	movff	??_USBStdGetDscHandler+1,tblptrh
  5687  00153A  6AF8               	clrf	tblptru,c
  5688  00153C  0E0E               	movlw	(high __ramtop+-1)
  5689  00153E  64F7               	cpfsgt	tblptrh,c
  5690  001540  D003               	bra	i2u223_47
  5691  001542  0008               	tblrd		*
  5692  001544  50F5               	movf	tablat,w,c
  5693  001546  D005               	bra	i2u223_40
  5694  001548                     i2u223_47:
  5695  001548  CFF6 FFE1          	movff	tblptrl,fsr1l
  5696  00154C  CFF7 FFE2          	movff	tblptrh,fsr1h
  5697  001550  50E7               	movf	indf1,w,c
  5698  001552                     i2u223_40:
  5699  001552  0100               	movlb	0	; () banked
  5700  001554  6F76               	movwf	(_inPipes+4)& (0+255),b	;volatile
  5701                           
  5702                           ; BSR set to: 0
  5703                           ;../../../../../../framework/usb/src/usb_device.c: 2079:                     inPipes[0].
      +                          wCount.byte.HB = *(inPipes[0].pSrc.bRom+3);
  5704  001556  0E03               	movlw	3
  5705  001558  2572               	addwf	_inPipes& (0+255),w,b	;volatile
  5706  00155A  6E01               	movwf	??_USBStdGetDscHandler& (0+255),c
  5707  00155C  0E00               	movlw	0
  5708  00155E  2173               	addwfc	(_inPipes+1)& (0+255),w,b	;volatile
  5709  001560  6E02               	movwf	(??_USBStdGetDscHandler+1)& (0+255),c
  5710  001562  C001  FFF6         	movff	??_USBStdGetDscHandler,tblptrl
  5711  001566  C002  FFF7         	movff	??_USBStdGetDscHandler+1,tblptrh
  5712  00156A  6AF8               	clrf	tblptru,c
  5713  00156C  0E0E               	movlw	(high __ramtop+-1)
  5714  00156E  64F7               	cpfsgt	tblptrh,c
  5715  001570  D003               	bra	i2u224_47
  5716  001572  0008               	tblrd		*
  5717  001574  50F5               	movf	tablat,w,c
  5718  001576  D005               	bra	i2u224_40
  5719  001578                     i2u224_47:
  5720  001578  CFF6 FFE1          	movff	tblptrl,fsr1l
  5721  00157C  CFF7 FFE2          	movff	tblptrh,fsr1h
  5722  001580  50E7               	movf	indf1,w,c
  5723  001582                     i2u224_40:
  5724  001582  0100               	movlb	0	; () banked
  5725  001584  6F77               	movwf	(_inPipes+5)& (0+255),b	;volatile
  5726                           
  5727                           ;../../../../../../framework/usb/src/usb_device.c: 2080:                 }
  5728  001586  0012               	return	
  5729  001588                     i2l3795:
  5730                           
  5731                           ; BSR set to: 4
  5732                           ;../../../../../../framework/usb/src/usb_device.c: 2082:     {;../../../../../../framewo
      +                          rk/usb/src/usb_device.c: 2083:      inPipes[0].info.Val = 0;
  5733  001588  0E00               	movlw	0
  5734  00158A  0100               	movlb	0	; () banked
  5735  00158C  6F75               	movwf	(_inPipes+3)& (0+255),b	;volatile
  5736  00158E  0012               	return	
  5737  001590                     i2l3797:
  5738                           
  5739                           ; BSR set to: 4
  5740                           ;../../../../../../framework/usb/src/usb_device.c: 2090:                 if(SetupPkt.bDs
      +                          cIndex<3)
  5741  001590  0E03               	movlw	3
  5742  001592  6132               	cpfslt	50,b	;volatile
  5743  001594  D024               	goto	i2l3803
  5744                           
  5745                           ; BSR set to: 4
  5746                           ;../../../../../../framework/usb/src/usb_device.c: 2091:                 {;../../../../.
      +                          ./../framework/usb/src/usb_device.c: 2093:                     inPipes[0].pSrc.bRom = *(
      +                          USB_SD_Ptr+SetupPkt.bDscIndex);
  5747  001596  5132               	movf	50,w,b	;volatile
  5748  001598  0D02               	mullw	2
  5749  00159A  0E01               	movlw	low _USB_SD_Ptr
  5750  00159C  24F3               	addwf	prodl,w,c
  5751  00159E  6EF6               	movwf	tblptrl,c
  5752  0015A0  0E0F               	movlw	high _USB_SD_Ptr
  5753  0015A2  20F4               	addwfc	prodh,w,c
  5754  0015A4  6EF7               	movwf	tblptrh,c
  5755  0015A6                     	if	0	;There are less than 3 active tblptr bytes
  5756  0015A6                     	endif
  5757  0015A6  0009               	tblrd		*+
  5758  0015A8  CFF5 F072          	movff	tablat,_inPipes	;volatile
  5759  0015AC  000A               	tblrd		*-
  5760  0015AE  CFF5 F073          	movff	tablat,_inPipes+1	;volatile
  5761                           
  5762                           ; BSR set to: 4
  5763                           ;../../../../../../framework/usb/src/usb_device.c: 2095:                     inPipes[0].
      +                          wCount.Val = *inPipes[0].pSrc.bRom;
  5764  0015B2  C072  FFF6         	movff	_inPipes,tblptrl	;volatile
  5765  0015B6  C073  FFF7         	movff	_inPipes+1,tblptrh	;volatile
  5766  0015BA  6AF8               	clrf	tblptru,c
  5767  0015BC  0E0E               	movlw	(high __ramtop+-1)
  5768  0015BE  64F7               	cpfsgt	tblptrh,c
  5769  0015C0  D003               	bra	i2u226_47
  5770  0015C2  0008               	tblrd		*
  5771  0015C4  50F5               	movf	tablat,w,c
  5772  0015C6  D005               	bra	i2u226_40
  5773  0015C8                     i2u226_47:
  5774  0015C8  CFF6 FFE1          	movff	tblptrl,fsr1l
  5775  0015CC  CFF7 FFE2          	movff	tblptrh,fsr1h
  5776  0015D0  50E7               	movf	indf1,w,c
  5777  0015D2                     i2u226_40:
  5778  0015D2  6E01               	movwf	??_USBStdGetDscHandler& (0+255),c
  5779  0015D4  5001               	movf	??_USBStdGetDscHandler,w,c
  5780  0015D6  0100               	movlb	0	; () banked
  5781  0015D8  6F76               	movwf	(_inPipes+4)& (0+255),b	;volatile
  5782  0015DA  6B77               	clrf	(_inPipes+5)& (0+255),b	;volatile
  5783                           
  5784                           ;../../../../../../framework/usb/src/usb_device.c: 2096:                 }
  5785  0015DC  0012               	return	
  5786  0015DE                     i2l3803:
  5787                           
  5788                           ; BSR set to: 4
  5789                           ;../../../../../../framework/usb/src/usb_device.c: 2107:                 {;../../../../.
      +                          ./../framework/usb/src/usb_device.c: 2108:                     inPipes[0].info.Val = 0;
  5790  0015DE  0E00               	movlw	0
  5791  0015E0  0100               	movlb	0	; () banked
  5792  0015E2  6F75               	movwf	(_inPipes+3)& (0+255),b	;volatile
  5793  0015E4  0012               	return	
  5794  0015E6                     i2l3805:
  5795                           
  5796                           ; BSR set to: 4
  5797                           ;../../../../../../framework/usb/src/usb_device.c: 2112:                 inPipes[0].info
      +                          .Val = 0;
  5798  0015E6  0E00               	movlw	0
  5799  0015E8  0100               	movlb	0	; () banked
  5800  0015EA  6F75               	movwf	(_inPipes+3)& (0+255),b	;volatile
  5801                           
  5802                           ;../../../../../../framework/usb/src/usb_device.c: 2113:                 break;
  5803  0015EC  0012               	return	
  5804  0015EE                     i2l3809:
  5805                           
  5806                           ; BSR set to: 0
  5807  0015EE  0104               	movlb	4	; () banked
  5808  0015F0  5133               	movf	51,w,b	;volatile
  5809  0015F2  6E01               	movwf	??_USBStdGetDscHandler& (0+255),c
  5810  0015F4  6A02               	clrf	(??_USBStdGetDscHandler+1)& (0+255),c
  5811                           
  5812                           ; Switch on 2 bytes has been partitioned into a top level switch of size 1, and 1 sub-sw
      +                          itches
  5813                           ; Switch size 1, requested type "simple"
  5814                           ; Number of cases is 1, Range of values is 0 to 0
  5815                           ; switch strategies available:
  5816                           ; Name         Instructions Cycles
  5817                           ; simple_byte            4     3 (average)
  5818                           ;	Chosen strategy is simple_byte
  5819  0015F6  5002               	movf	??_USBStdGetDscHandler+1,w,c
  5820  0015F8  0A00               	xorlw	0	; case 0
  5821  0015FA  A4D8               	btfss	status,2,c
  5822  0015FC  D7F4               	goto	i2l3805
  5823                           
  5824                           ; BSR set to: 4
  5825                           ; Switch size 1, requested type "simple"
  5826                           ; Number of cases is 3, Range of values is 1 to 3
  5827                           ; switch strategies available:
  5828                           ; Name         Instructions Cycles
  5829                           ; simple_byte           10     6 (average)
  5830                           ;	Chosen strategy is simple_byte
  5831  0015FE  5001               	movf	??_USBStdGetDscHandler,w,c
  5832  001600  0A01               	xorlw	1	; case 1
  5833  001602  B4D8               	btfsc	status,2,c
  5834  001604  D774               	goto	i2l3783
  5835  001606  0A03               	xorlw	3	; case 2
  5836  001608  B4D8               	btfsc	status,2,c
  5837  00160A  D77B               	goto	i2l3787
  5838  00160C  0A01               	xorlw	1	; case 3
  5839  00160E  B4D8               	btfsc	status,2,c
  5840  001610  D7BF               	goto	i2l3797
  5841  001612  D7E9               	goto	i2l3805
  5842  001614                     __end_of_USBStdGetDscHandler:
  5843                           	opt callstack 0
  5844                           
  5845 ;; *************** function _USBStdFeatureReqHandler *****************
  5846 ;; Defined at:
  5847 ;;		line 2761 in file "../../../../../../framework/usb/src/usb_device.c"
  5848 ;; Parameters:    Size  Location     Type
  5849 ;;		None
  5850 ;; Auto vars:     Size  Location     Type
  5851 ;;  p               2   25[COMRAM] PTR struct __BDT
  5852 ;;		 -> RAM(3775), NULL(0), BDT(48), 
  5853 ;;  pUEP            2   22[COMRAM] PTR unsigned char 
  5854 ;;		 -> UEP0(1), 
  5855 ;;  current_ep_d    1   24[COMRAM] struct .
  5856 ;; Return value:  Size  Location     Type
  5857 ;;                  1    wreg      void 
  5858 ;; Registers used:
  5859 ;;		wreg, fsr2l, fsr2h, status,2, status,0, prodl, prodh, cstack
  5860 ;; Tracked objects:
  5861 ;;		On entry : 0/0
  5862 ;;		On exit  : 0/0
  5863 ;;		Unchanged: 0/0
  5864 ;; Data sizes:     COMRAM   BANK0   BANK1   BANK2   BANK3   BANK4   BANK5   BANK6   BANK7   BANK8   BANK9  BANK10  BANK1
      +1  BANK12  BANK13  BANK14
  5865 ;;      Params:         0       0       0       0       0       0       0       0       0       0       0       0       
      +0       0       0       0
  5866 ;;      Locals:         5       0       0       0       0       0       0       0       0       0       0       0       
      +0       0       0       0
  5867 ;;      Temps:          2       0       0       0       0       0       0       0       0       0       0       0       
      +0       0       0       0
  5868 ;;      Totals:         7       0       0       0       0       0       0       0       0       0       0       0       
      +0       0       0       0
  5869 ;;Total ram usage:        7 bytes
  5870 ;; Hardware stack levels used:    1
  5871 ;; Hardware stack levels required when called:    4
  5872 ;; This function calls:
  5873 ;;		_USER_USB_CALLBACK_EVENT_HANDLER
  5874 ;; This function is called by:
  5875 ;;		_USBCheckStdRequest
  5876 ;; This function uses a non-reentrant model
  5877 ;;
  5878                           
  5879                           	psect	text31
  5880  000FCC                     __ptext31:
  5881                           	opt callstack 0
  5882  000FCC                     _USBStdFeatureReqHandler:
  5883                           	opt callstack 18
  5884                           
  5885                           ;../../../../../../framework/usb/src/usb_device.c: 2763:     BDT_ENTRY *p;;../../../../.
      +                          ./../framework/usb/src/usb_device.c: 2764:     EP_STATUS current_ep_data;;../../../../..
      +                          /../framework/usb/src/usb_device.c: 2768:         unsigned char* pUEP;;../../../../../..
      +                          /framework/usb/src/usb_device.c: 2772:     if((SetupPkt.bFeature == 1)&&
  5886                           
  5887                           ;incstack = 0
  5888  000FCC  0104               	movlb	4	; () banked
  5889  000FCE  0532               	decf	50,w,b	;volatile
  5890  000FD0  A4D8               	btfss	status,2,c
  5891  000FD2  D010               	goto	i2l430
  5892                           
  5893                           ; BSR set to: 4
  5894  000FD4  5130               	movf	48,w,b	;volatile
  5895  000FD6  0B1F               	andlw	31
  5896  000FD8  0900               	iorlw	0
  5897  000FDA  A4D8               	btfss	status,2,c
  5898  000FDC  D00B               	goto	i2l430
  5899                           
  5900                           ; BSR set to: 4
  5901                           ;../../../../../../framework/usb/src/usb_device.c: 2774:     {;../../../../../../framewo
      +                          rk/usb/src/usb_device.c: 2775:         inPipes[0].info.bits.busy = 1;
  5902  000FDE  0100               	movlb	0	; () banked
  5903  000FE0  8F75               	bsf	(_inPipes+3)& (0+255),7,b	;volatile
  5904                           
  5905                           ; BSR set to: 0
  5906                           ;../../../../../../framework/usb/src/usb_device.c: 2776:         if(SetupPkt.bRequest ==
      +                           3)
  5907  000FE2  0E03               	movlw	3
  5908  000FE4  0104               	movlb	4	; () banked
  5909  000FE6  1931               	xorwf	49,w,b	;volatile
  5910  000FE8  A4D8               	btfss	status,2,c
  5911  000FEA  D002               	goto	i2l3861
  5912                           
  5913                           ; BSR set to: 4
  5914                           ;../../../../../../framework/usb/src/usb_device.c: 2777:             RemoteWakeup = 1;
  5915  000FEC  0E01               	movlw	1
  5916  000FEE  D001               	goto	L7
  5917  000FF0                     i2l3861:
  5918                           
  5919                           ; BSR set to: 4
  5920                           ;../../../../../../framework/usb/src/usb_device.c: 2779:             RemoteWakeup = 0;
  5921  000FF0  0E00               	movlw	0
  5922  000FF2                     L7:
  5923  000FF2  6E42               	movwf	_RemoteWakeup,c	;volatile
  5924  000FF4                     i2l430:
  5925                           
  5926                           ; BSR set to: 4
  5927                           ;../../../../../../framework/usb/src/usb_device.c: 2783:     if((SetupPkt.bFeature == 0)
      +                          &&
  5928  000FF4  5132               	movf	50,w,b	;volatile
  5929  000FF6  A4D8               	btfss	status,2,c
  5930  000FF8  0012               	return	
  5931                           
  5932                           ; BSR set to: 4
  5933  000FFA  5130               	movf	48,w,b	;volatile
  5934  000FFC  0B1F               	andlw	31
  5935  000FFE  0A02               	xorlw	2
  5936  001000  A4D8               	btfss	status,2,c
  5937  001002  0012               	return	
  5938                           
  5939                           ; BSR set to: 4
  5940  001004  5134               	movf	52,w,b	;volatile
  5941  001006  0B0F               	andlw	15
  5942  001008  0900               	iorlw	0
  5943  00100A  B4D8               	btfsc	status,2,c
  5944  00100C  0012               	return	
  5945                           
  5946                           ; BSR set to: 4
  5947  00100E  5134               	movf	52,w,b	;volatile
  5948  001010  0B0F               	andlw	15
  5949  001012  6E15               	movwf	??_USBStdFeatureReqHandler& (0+255),c
  5950  001014  0E03               	movlw	3
  5951  001016  6015               	cpfslt	??_USBStdFeatureReqHandler,c
  5952  001018  0012               	return	
  5953                           
  5954                           ; BSR set to: 4
  5955  00101A  0E20               	movlw	32
  5956  00101C  1845               	xorwf	_USBDeviceState,w,c	;volatile
  5957  00101E  A4D8               	btfss	status,2,c
  5958  001020  0012               	return	
  5959                           
  5960                           ; BSR set to: 4
  5961                           ;../../../../../../framework/usb/src/usb_device.c: 2787:     {;../../../../../../framewo
      +                          rk/usb/src/usb_device.c: 2790:   inPipes[0].info.bits.busy = 1;
  5962  001022  0100               	movlb	0	; () banked
  5963  001024  8F75               	bsf	(_inPipes+3)& (0+255),7,b	;volatile
  5964                           
  5965                           ;../../../../../../framework/usb/src/usb_device.c: 2793:         if(SetupPkt.EPDir == 0)
  5966  001026  0104               	movlb	4	; () banked
  5967  001028  BF34               	btfsc	52,7,b	;volatile
  5968  00102A  D018               	goto	i2l3877
  5969                           
  5970                           ; BSR set to: 4
  5971                           ;../../../../../../framework/usb/src/usb_device.c: 2794:         {;../../../../../../fra
      +                          mework/usb/src/usb_device.c: 2795:             p = (BDT_ENTRY*)pBDTEntryOut[SetupPkt.EPN
      +                          um];
  5972  00102C  5134               	movf	52,w,b	;volatile
  5973  00102E  0B0F               	andlw	15
  5974  001030  6E15               	movwf	??_USBStdFeatureReqHandler& (0+255),c
  5975  001032  5015               	movf	??_USBStdFeatureReqHandler,w,c
  5976  001034  0D02               	mullw	2
  5977  001036  0E7E               	movlw	low _pBDTEntryOut
  5978  001038  24F3               	addwf	prodl,w,c
  5979  00103A  6ED9               	movwf	fsr2l,c
  5980  00103C  0E00               	movlw	high _pBDTEntryOut
  5981  00103E  20F4               	addwfc	prodh,w,c
  5982  001040  6EDA               	movwf	fsr2h,c
  5983  001042  CFDE F01A          	movff	postinc2,USBStdFeatureReqHandler@p
  5984  001046  CFDD F01B          	movff	postdec2,USBStdFeatureReqHandler@p+1
  5985                           
  5986                           ; BSR set to: 4
  5987                           ;../../../../../../framework/usb/src/usb_device.c: 2796:             current_ep_data.Val
      +                           = ep_data_out[SetupPkt.EPNum].Val;
  5988  00104A  5134               	movf	52,w,b	;volatile
  5989  00104C  0B0F               	andlw	15
  5990  00104E  6E15               	movwf	??_USBStdFeatureReqHandler& (0+255),c
  5991  001050  6A16               	clrf	(??_USBStdFeatureReqHandler+1)& (0+255),c
  5992  001052  0E8E               	movlw	low _ep_data_out
  5993  001054  2415               	addwf	??_USBStdFeatureReqHandler,w,c
  5994  001056  6ED9               	movwf	fsr2l,c
  5995  001058  0E00               	movlw	high _ep_data_out
  5996  00105A  D017               	goto	L8
  5997  00105C                     i2l3877:
  5998                           
  5999                           ; BSR set to: 4
  6000                           ;../../../../../../framework/usb/src/usb_device.c: 2799:         {;../../../../../../fra
      +                          mework/usb/src/usb_device.c: 2800:             p = (BDT_ENTRY*)pBDTEntryIn[SetupPkt.EPNu
      +                          m];
  6001  00105C  5134               	movf	52,w,b	;volatile
  6002  00105E  0B0F               	andlw	15
  6003  001060  6E15               	movwf	??_USBStdFeatureReqHandler& (0+255),c
  6004  001062  5015               	movf	??_USBStdFeatureReqHandler,w,c
  6005  001064  0D02               	mullw	2
  6006  001066  0E78               	movlw	low _pBDTEntryIn
  6007  001068  24F3               	addwf	prodl,w,c
  6008  00106A  6ED9               	movwf	fsr2l,c
  6009  00106C  0E00               	movlw	high _pBDTEntryIn
  6010  00106E  20F4               	addwfc	prodh,w,c
  6011  001070  6EDA               	movwf	fsr2h,c
  6012  001072  CFDE F01A          	movff	postinc2,USBStdFeatureReqHandler@p
  6013  001076  CFDD F01B          	movff	postdec2,USBStdFeatureReqHandler@p+1
  6014                           
  6015                           ; BSR set to: 4
  6016                           ;../../../../../../framework/usb/src/usb_device.c: 2801:             current_ep_data.Val
      +                           = ep_data_in[SetupPkt.EPNum].Val;
  6017  00107A  5134               	movf	52,w,b	;volatile
  6018  00107C  0B0F               	andlw	15
  6019  00107E  6E15               	movwf	??_USBStdFeatureReqHandler& (0+255),c
  6020  001080  6A16               	clrf	(??_USBStdFeatureReqHandler+1)& (0+255),c
  6021  001082  0E91               	movlw	low _ep_data_in
  6022  001084  2415               	addwf	??_USBStdFeatureReqHandler,w,c
  6023  001086  6ED9               	movwf	fsr2l,c
  6024  001088  0E00               	movlw	high _ep_data_in
  6025  00108A                     L8:
  6026  00108A  2016               	addwfc	??_USBStdFeatureReqHandler+1,w,c
  6027  00108C  6EDA               	movwf	fsr2h,c
  6028  00108E  50DF               	movf	indf2,w,c
  6029  001090  6E19               	movwf	USBStdFeatureReqHandler@current_ep_data,c
  6030                           
  6031                           ; BSR set to: 4
  6032                           ;../../../../../../framework/usb/src/usb_device.c: 2808:             if(current_ep_data.
      +                          bits.ping_pong_state == 0)
  6033  001092  B019               	btfsc	USBStdFeatureReqHandler@current_ep_data,0,c
  6034  001094  D006               	goto	i2l3885
  6035                           
  6036                           ; BSR set to: 4
  6037                           ;../../../../../../framework/usb/src/usb_device.c: 2809:             {;../../../../../..
      +                          /framework/usb/src/usb_device.c: 2810:                 p = (BDT_ENTRY*)(((uint16_t)p) & 
      +                          (~0x0004));
  6038  001096  0EFB               	movlw	251
  6039  001098  141A               	andwf	USBStdFeatureReqHandler@p,w,c
  6040  00109A  6E1A               	movwf	USBStdFeatureReqHandler@p,c
  6041  00109C  0EFF               	movlw	255
  6042  00109E  141B               	andwf	USBStdFeatureReqHandler@p+1,w,c
  6043  0010A0  D004               	goto	L9
  6044  0010A2                     i2l3885:
  6045                           
  6046                           ; BSR set to: 4
  6047                           ;../../../../../../framework/usb/src/usb_device.c: 2813:             {;../../../../../..
      +                          /framework/usb/src/usb_device.c: 2814:                 p = (BDT_ENTRY*)(((uint16_t)p) | 
      +                          0x0004);
  6048  0010A2  0E04               	movlw	4
  6049  0010A4  101A               	iorwf	USBStdFeatureReqHandler@p,w,c
  6050  0010A6  6E1A               	movwf	USBStdFeatureReqHandler@p,c
  6051  0010A8  501B               	movf	USBStdFeatureReqHandler@p+1,w,c
  6052  0010AA                     L9:
  6053  0010AA  6E1B               	movwf	USBStdFeatureReqHandler@p+1,c
  6054                           
  6055                           ; BSR set to: 4
  6056                           ;../../../../../../framework/usb/src/usb_device.c: 2820:         if(SetupPkt.EPDir == 0)
  6057  0010AC  BF34               	btfsc	52,7,b	;volatile
  6058  0010AE  D00A               	goto	i2l3891
  6059                           
  6060                           ; BSR set to: 4
  6061                           ;../../../../../../framework/usb/src/usb_device.c: 2821:         {;../../../../../../fra
      +                          mework/usb/src/usb_device.c: 2822:             pBDTEntryOut[SetupPkt.EPNum] = (volatile 
      +                          BDT_ENTRY *)p;
  6062  0010B0  5134               	movf	52,w,b	;volatile
  6063  0010B2  0B0F               	andlw	15
  6064  0010B4  6E15               	movwf	??_USBStdFeatureReqHandler& (0+255),c
  6065  0010B6  5015               	movf	??_USBStdFeatureReqHandler,w,c
  6066  0010B8  0D02               	mullw	2
  6067  0010BA  0E7E               	movlw	low _pBDTEntryOut
  6068  0010BC  24F3               	addwf	prodl,w,c
  6069  0010BE  6ED9               	movwf	fsr2l,c
  6070  0010C0  0E00               	movlw	high _pBDTEntryOut
  6071  0010C2  D009               	goto	L10
  6072  0010C4                     i2l3891:
  6073                           
  6074                           ; BSR set to: 4
  6075                           ;../../../../../../framework/usb/src/usb_device.c: 2825:         {;../../../../../../fra
      +                          mework/usb/src/usb_device.c: 2826:             pBDTEntryIn[SetupPkt.EPNum] = (volatile B
      +                          DT_ENTRY *)p;
  6076  0010C4  5134               	movf	52,w,b	;volatile
  6077  0010C6  0B0F               	andlw	15
  6078  0010C8  6E15               	movwf	??_USBStdFeatureReqHandler& (0+255),c
  6079  0010CA  5015               	movf	??_USBStdFeatureReqHandler,w,c
  6080  0010CC  0D02               	mullw	2
  6081  0010CE  0E78               	movlw	low _pBDTEntryIn
  6082  0010D0  24F3               	addwf	prodl,w,c
  6083  0010D2  6ED9               	movwf	fsr2l,c
  6084  0010D4  0E00               	movlw	high _pBDTEntryIn
  6085  0010D6                     L10:
  6086  0010D6  20F4               	addwfc	prodh,w,c
  6087  0010D8  6EDA               	movwf	fsr2h,c
  6088  0010DA  C01A  FFDE         	movff	USBStdFeatureReqHandler@p,postinc2
  6089  0010DE  C01B  FFDD         	movff	USBStdFeatureReqHandler@p+1,postdec2
  6090                           
  6091                           ; BSR set to: 4
  6092                           ;../../../../../../framework/usb/src/usb_device.c: 2830:         if(SetupPkt.bRequest ==
      +                           3)
  6093  0010E2  0E03               	movlw	3
  6094  0010E4  1931               	xorwf	49,w,b	;volatile
  6095  0010E6  A4D8               	btfss	status,2,c
  6096  0010E8  D02A               	goto	i2l3903
  6097                           
  6098                           ; BSR set to: 4
  6099                           ;../../../../../../framework/usb/src/usb_device.c: 2831:         {;../../../../../../fra
      +                          mework/usb/src/usb_device.c: 2832:             if(p->STAT.UOWN == 1)
  6100  0010EA  C01A  FFD9         	movff	USBStdFeatureReqHandler@p,fsr2l
  6101  0010EE  C01B  FFDA         	movff	USBStdFeatureReqHandler@p+1,fsr2h
  6102  0010F2  AEDF               	btfss	indf2,7,c
  6103  0010F4  D017               	goto	i2l441
  6104                           
  6105                           ; BSR set to: 4
  6106                           ;../../../../../../framework/usb/src/usb_device.c: 2833:             {;../../../../../..
      +                          /framework/usb/src/usb_device.c: 2836:                 if(SetupPkt.EPDir == 0)
  6107  0010F6  BF34               	btfsc	52,7,b	;volatile
  6108  0010F8  D009               	goto	i2l3901
  6109                           
  6110                           ; BSR set to: 4
  6111                           ;../../../../../../framework/usb/src/usb_device.c: 2837:                 {;../../../../.
      +                          ./../framework/usb/src/usb_device.c: 2838:                     ep_data_out[SetupPkt.EPNu
      +                          m].bits.transfer_terminated = 1;
  6112  0010FA  5134               	movf	52,w,b	;volatile
  6113  0010FC  0B0F               	andlw	15
  6114  0010FE  6E15               	movwf	??_USBStdFeatureReqHandler& (0+255),c
  6115  001100  6A16               	clrf	(??_USBStdFeatureReqHandler+1)& (0+255),c
  6116  001102  0E8E               	movlw	low _ep_data_out
  6117  001104  2415               	addwf	??_USBStdFeatureReqHandler,w,c
  6118  001106  6ED9               	movwf	fsr2l,c
  6119  001108  0E00               	movlw	high _ep_data_out
  6120  00110A  D008               	goto	L11
  6121  00110C                     i2l3901:
  6122                           
  6123                           ; BSR set to: 4
  6124                           ;../../../../../../framework/usb/src/usb_device.c: 2841:                 {;../../../../.
      +                          ./../framework/usb/src/usb_device.c: 2842:                     ep_data_in[SetupPkt.EPNum
      +                          ].bits.transfer_terminated = 1;
  6125  00110C  5134               	movf	52,w,b	;volatile
  6126  00110E  0B0F               	andlw	15
  6127  001110  6E15               	movwf	??_USBStdFeatureReqHandler& (0+255),c
  6128  001112  6A16               	clrf	(??_USBStdFeatureReqHandler+1)& (0+255),c
  6129  001114  0E91               	movlw	low _ep_data_in
  6130  001116  2415               	addwf	??_USBStdFeatureReqHandler,w,c
  6131  001118  6ED9               	movwf	fsr2l,c
  6132  00111A  0E00               	movlw	high _ep_data_in
  6133  00111C                     L11:
  6134  00111C  2016               	addwfc	??_USBStdFeatureReqHandler+1,w,c
  6135  00111E  6EDA               	movwf	fsr2h,c
  6136  001120  0100               	movlb	0	; () banked
  6137  001122  82DF               	bsf	indf2,1,c
  6138  001124                     i2l441:
  6139                           
  6140                           ;../../../../../../framework/usb/src/usb_device.c: 2847:             p->STAT.Val |= 0x04
      +                          ;
  6141  001124  C01A  FFD9         	movff	USBStdFeatureReqHandler@p,fsr2l
  6142  001128  C01B  FFDA         	movff	USBStdFeatureReqHandler@p+1,fsr2h
  6143  00112C  0E00               	movlw	0
  6144  00112E  84DB               	bsf	plusw2,2,c
  6145                           
  6146                           ;../../../../../../framework/usb/src/usb_device.c: 2848:             p->STAT.Val |= 0x80
      +                          ;
  6147  001130  C01A  FFD9         	movff	USBStdFeatureReqHandler@p,fsr2l
  6148  001134  C01B  FFDA         	movff	USBStdFeatureReqHandler@p+1,fsr2h
  6149  001138  0E00               	movlw	0
  6150  00113A  8EDB               	bsf	plusw2,7,c
  6151                           
  6152                           ;../../../../../../framework/usb/src/usb_device.c: 2849:         }
  6153  00113C  0012               	return	
  6154  00113E                     i2l3903:
  6155                           
  6156                           ; BSR set to: 4
  6157                           ;../../../../../../framework/usb/src/usb_device.c: 2851:         {;../../../../../../fra
      +                          mework/usb/src/usb_device.c: 2855:                 p = (BDT_ENTRY*)(((uint16_t)p) ^ 0x00
      +                          04);
  6158  00113E  0E04               	movlw	4
  6159  001140  181A               	xorwf	USBStdFeatureReqHandler@p,w,c
  6160  001142  6E1A               	movwf	USBStdFeatureReqHandler@p,c
  6161  001144  501B               	movf	USBStdFeatureReqHandler@p+1,w,c
  6162  001146  6E1B               	movwf	USBStdFeatureReqHandler@p+1,c
  6163                           
  6164                           ; BSR set to: 4
  6165                           ;../../../../../../framework/usb/src/usb_device.c: 2857:                 if(p->STAT.UOWN
      +                           == 1)
  6166  001148  C01A  FFD9         	movff	USBStdFeatureReqHandler@p,fsr2l
  6167  00114C  C01B  FFDA         	movff	USBStdFeatureReqHandler@p+1,fsr2h
  6168  001150  AEDF               	btfss	indf2,7,c
  6169  001152  D01B               	goto	i2l3913
  6170                           
  6171                           ; BSR set to: 4
  6172                           ;../../../../../../framework/usb/src/usb_device.c: 2858:                 {;../../../../.
      +                          ./../framework/usb/src/usb_device.c: 2861:                     p->STAT.Val &= (~0x80);
  6173  001154  C01A  FFD9         	movff	USBStdFeatureReqHandler@p,fsr2l
  6174  001158  C01B  FFDA         	movff	USBStdFeatureReqHandler@p+1,fsr2h
  6175  00115C  0E7F               	movlw	127
  6176  00115E  16DF               	andwf	indf2,f,c
  6177                           
  6178                           ; BSR set to: 4
  6179                           ;../../../../../../framework/usb/src/usb_device.c: 2862:                     p->STAT.Val
      +                           |= 0x40;
  6180  001160  C01A  FFD9         	movff	USBStdFeatureReqHandler@p,fsr2l
  6181  001164  C01B  FFDA         	movff	USBStdFeatureReqHandler@p+1,fsr2h
  6182  001168  0E00               	movlw	0
  6183  00116A  8CDB               	bsf	plusw2,6,c
  6184                           
  6185                           ; BSR set to: 4
  6186                           ;../../../../../../framework/usb/src/usb_device.c: 2863:                     USER_USB_CA
      +                          LLBACK_EVENT_HANDLER((USB_EVENT)EVENT_TRANSFER_TERMINATED,p,sizeof(p));
  6187  00116C  0E00               	movlw	0
  6188  00116E  6E0E               	movwf	USER_USB_CALLBACK_EVENT_HANDLER@event+1,c
  6189  001170  0E05               	movlw	5
  6190  001172  6E0D               	movwf	USER_USB_CALLBACK_EVENT_HANDLER@event,c
  6191  001174  C01A  F00F         	movff	USBStdFeatureReqHandler@p,USER_USB_CALLBACK_EVENT_HANDLER@pdata
  6192  001178  C01B  F010         	movff	USBStdFeatureReqHandler@p+1,USER_USB_CALLBACK_EVENT_HANDLER@pdata+1
  6193  00117C  0E00               	movlw	0
  6194  00117E  6E12               	movwf	USER_USB_CALLBACK_EVENT_HANDLER@size+1,c
  6195  001180  0E02               	movlw	2
  6196  001182  6E11               	movwf	USER_USB_CALLBACK_EVENT_HANDLER@size,c
  6197  001184  EC65  F014         	call	_USER_USB_CALLBACK_EVENT_HANDLER	;wreg free
  6198                           
  6199                           ;../../../../../../framework/usb/src/usb_device.c: 2864:                 }
  6200  001188  D006               	goto	i2l3915
  6201  00118A                     i2l3913:
  6202                           
  6203                           ; BSR set to: 4
  6204                           ;../../../../../../framework/usb/src/usb_device.c: 2866:                 {;../../../../.
      +                          ./../framework/usb/src/usb_device.c: 2868:      p->STAT.Val |= 0x40;
  6205  00118A  C01A  FFD9         	movff	USBStdFeatureReqHandler@p,fsr2l
  6206  00118E  C01B  FFDA         	movff	USBStdFeatureReqHandler@p+1,fsr2h
  6207  001192  0E00               	movlw	0
  6208  001194  8CDB               	bsf	plusw2,6,c
  6209  001196                     i2l3915:
  6210                           
  6211                           ;../../../../../../framework/usb/src/usb_device.c: 2873:                 p = (BDT_ENTRY*
      +                          )(((uint16_t)p) ^ 0x0004);
  6212  001196  0E04               	movlw	4
  6213  001198  181A               	xorwf	USBStdFeatureReqHandler@p,w,c
  6214  00119A  6E1A               	movwf	USBStdFeatureReqHandler@p,c
  6215  00119C  501B               	movf	USBStdFeatureReqHandler@p+1,w,c
  6216  00119E  6E1B               	movwf	USBStdFeatureReqHandler@p+1,c
  6217                           
  6218                           ;../../../../../../framework/usb/src/usb_device.c: 2879:                 if((current_ep_
      +                          data.bits.transfer_terminated != 0) || (p->STAT.UOWN == 1))
  6219  0011A0  B219               	btfsc	USBStdFeatureReqHandler@current_ep_data,1,c
  6220  0011A2  D006               	goto	i2u249_40
  6221  0011A4  C01A  FFD9         	movff	USBStdFeatureReqHandler@p,fsr2l
  6222  0011A8  C01B  FFDA         	movff	USBStdFeatureReqHandler@p+1,fsr2h
  6223  0011AC  AEDF               	btfss	indf2,7,c
  6224  0011AE  D02D               	goto	i2l3929
  6225  0011B0                     i2u249_40:
  6226                           
  6227                           ;../../../../../../framework/usb/src/usb_device.c: 2880:                 {;../../../../.
      +                          ./../framework/usb/src/usb_device.c: 2881:                     if(SetupPkt.EPDir == 0)
  6228  0011B0  0104               	movlb	4	; () banked
  6229  0011B2  BF34               	btfsc	52,7,b	;volatile
  6230  0011B4  D009               	goto	i2l3923
  6231                           
  6232                           ; BSR set to: 4
  6233                           ;../../../../../../framework/usb/src/usb_device.c: 2882:                     {;../../../
      +                          ../../../framework/usb/src/usb_device.c: 2883:                         ep_data_out[Setup
      +                          Pkt.EPNum].bits.transfer_terminated = 0;
  6234  0011B6  5134               	movf	52,w,b	;volatile
  6235  0011B8  0B0F               	andlw	15
  6236  0011BA  6E15               	movwf	??_USBStdFeatureReqHandler& (0+255),c
  6237  0011BC  6A16               	clrf	(??_USBStdFeatureReqHandler+1)& (0+255),c
  6238  0011BE  0E8E               	movlw	low _ep_data_out
  6239  0011C0  2415               	addwf	??_USBStdFeatureReqHandler,w,c
  6240  0011C2  6ED9               	movwf	fsr2l,c
  6241  0011C4  0E00               	movlw	high _ep_data_out
  6242  0011C6  D008               	goto	L12
  6243  0011C8                     i2l3923:
  6244                           
  6245                           ; BSR set to: 4
  6246                           ;../../../../../../framework/usb/src/usb_device.c: 2886:                     {;../../../
      +                          ../../../framework/usb/src/usb_device.c: 2887:                         ep_data_in[SetupP
      +                          kt.EPNum].bits.transfer_terminated = 0;
  6247  0011C8  5134               	movf	52,w,b	;volatile
  6248  0011CA  0B0F               	andlw	15
  6249  0011CC  6E15               	movwf	??_USBStdFeatureReqHandler& (0+255),c
  6250  0011CE  6A16               	clrf	(??_USBStdFeatureReqHandler+1)& (0+255),c
  6251  0011D0  0E91               	movlw	low _ep_data_in
  6252  0011D2  2415               	addwf	??_USBStdFeatureReqHandler,w,c
  6253  0011D4  6ED9               	movwf	fsr2l,c
  6254  0011D6  0E00               	movlw	high _ep_data_in
  6255  0011D8                     L12:
  6256  0011D8  2016               	addwfc	??_USBStdFeatureReqHandler+1,w,c
  6257  0011DA  6EDA               	movwf	fsr2h,c
  6258  0011DC  0100               	movlb	0	; () banked
  6259  0011DE  92DF               	bcf	indf2,1,c
  6260                           
  6261                           ; BSR set to: 0
  6262                           ;../../../../../../framework/usb/src/usb_device.c: 2890:                     p->STAT.Val
      +                           &= ~(0x80 | 0x40 | 0x04);
  6263  0011E0  C01A  FFD9         	movff	USBStdFeatureReqHandler@p,fsr2l
  6264  0011E4  C01B  FFDA         	movff	USBStdFeatureReqHandler@p+1,fsr2h
  6265  0011E8  0E3B               	movlw	59
  6266  0011EA  16DF               	andwf	indf2,f,c
  6267                           
  6268                           ; BSR set to: 0
  6269                           ;../../../../../../framework/usb/src/usb_device.c: 2893:                     USER_USB_CA
      +                          LLBACK_EVENT_HANDLER((USB_EVENT)EVENT_TRANSFER_TERMINATED,p,sizeof(p));
  6270  0011EC  0E00               	movlw	0
  6271  0011EE  6E0E               	movwf	USER_USB_CALLBACK_EVENT_HANDLER@event+1,c
  6272  0011F0  0E05               	movlw	5
  6273  0011F2  6E0D               	movwf	USER_USB_CALLBACK_EVENT_HANDLER@event,c
  6274  0011F4  C01A  F00F         	movff	USBStdFeatureReqHandler@p,USER_USB_CALLBACK_EVENT_HANDLER@pdata
  6275  0011F8  C01B  F010         	movff	USBStdFeatureReqHandler@p+1,USER_USB_CALLBACK_EVENT_HANDLER@pdata+1
  6276  0011FC  0E00               	movlw	0
  6277  0011FE  6E12               	movwf	USER_USB_CALLBACK_EVENT_HANDLER@size+1,c
  6278  001200  0E02               	movlw	2
  6279  001202  6E11               	movwf	USER_USB_CALLBACK_EVENT_HANDLER@size,c
  6280  001204  EC65  F014         	call	_USER_USB_CALLBACK_EVENT_HANDLER	;wreg free
  6281                           
  6282                           ;../../../../../../framework/usb/src/usb_device.c: 2894:                 }
  6283  001208  D006               	goto	i2l3931
  6284  00120A                     i2l3929:
  6285                           
  6286                           ;../../../../../../framework/usb/src/usb_device.c: 2896:                 {;../../../../.
      +                          ./../framework/usb/src/usb_device.c: 2898:                     p->STAT.Val &= ~(0x80 | 0
      +                          x40 | 0x04);
  6287  00120A  C01A  FFD9         	movff	USBStdFeatureReqHandler@p,fsr2l
  6288  00120E  C01B  FFDA         	movff	USBStdFeatureReqHandler@p+1,fsr2h
  6289  001212  0E3B               	movlw	59
  6290  001214  16DF               	andwf	indf2,f,c
  6291  001216                     i2l3931:
  6292                           
  6293                           ;../../../../../../framework/usb/src/usb_device.c: 2946:                 pUEP = (unsigne
      +                          d char*)(&UEP0+SetupPkt.EPNum);
  6294  001216  0104               	movlb	4	; () banked
  6295  001218  5134               	movf	52,w,b	;volatile
  6296  00121A  0B0F               	andlw	15
  6297  00121C  6E15               	movwf	??_USBStdFeatureReqHandler& (0+255),c
  6298  00121E  6A16               	clrf	(??_USBStdFeatureReqHandler+1)& (0+255),c
  6299  001220  0E26               	movlw	38
  6300  001222  2415               	addwf	??_USBStdFeatureReqHandler,w,c
  6301  001224  6E17               	movwf	USBStdFeatureReqHandler@pUEP,c
  6302  001226  0E0F               	movlw	15
  6303  001228  2016               	addwfc	??_USBStdFeatureReqHandler+1,w,c
  6304  00122A  6E18               	movwf	USBStdFeatureReqHandler@pUEP+1,c
  6305                           
  6306                           ; BSR set to: 4
  6307                           ;../../../../../../framework/usb/src/usb_device.c: 2950:             *pUEP &= ~0x0001;
  6308  00122C  C017  FFD9         	movff	USBStdFeatureReqHandler@pUEP,fsr2l
  6309  001230  C018  FFDA         	movff	USBStdFeatureReqHandler@pUEP+1,fsr2h
  6310  001234  0EFE               	movlw	254
  6311  001236  16DF               	andwf	indf2,f,c
  6312  001238  0012               	return		;funcret
  6313  00123A                     __end_of_USBStdFeatureReqHandler:
  6314                           	opt callstack 0
  6315                           
  6316 ;; *************** function _USER_USB_CALLBACK_EVENT_HANDLER *****************
  6317 ;; Defined at:
  6318 ;;		line 51 in file "../demo_src/usb_events.c"
  6319 ;; Parameters:    Size  Location     Type
  6320 ;;  event           2   12[COMRAM] enum E5892
  6321 ;;  pdata           2   14[COMRAM] PTR void 
  6322 ;;		 -> RAM(3775), USTATcopy(1), USBActiveConfiguration(1), NULL(0), 
  6323 ;;		 -> BDT(48), 
  6324 ;;  size            2   16[COMRAM] unsigned short 
  6325 ;; Auto vars:     Size  Location     Type
  6326 ;;		None
  6327 ;; Return value:  Size  Location     Type
  6328 ;;                  1    wreg      _Bool 
  6329 ;; Registers used:
  6330 ;;		wreg, fsr2l, fsr2h, status,2, status,0, prodl, prodh, cstack
  6331 ;; Tracked objects:
  6332 ;;		On entry : 0/0
  6333 ;;		On exit  : 0/0
  6334 ;;		Unchanged: 0/0
  6335 ;; Data sizes:     COMRAM   BANK0   BANK1   BANK2   BANK3   BANK4   BANK5   BANK6   BANK7   BANK8   BANK9  BANK10  BANK1
      +1  BANK12  BANK13  BANK14
  6336 ;;      Params:         6       0       0       0       0       0       0       0       0       0       0       0       
      +0       0       0       0
  6337 ;;      Locals:         0       0       0       0       0       0       0       0       0       0       0       0       
      +0       0       0       0
  6338 ;;      Temps:          2       0       0       0       0       0       0       0       0       0       0       0       
      +0       0       0       0
  6339 ;;      Totals:         8       0       0       0       0       0       0       0       0       0       0       0       
      +0       0       0       0
  6340 ;;Total ram usage:        8 bytes
  6341 ;; Hardware stack levels used:    1
  6342 ;; Hardware stack levels required when called:    3
  6343 ;; This function calls:
  6344 ;;		_APP_DeviceCDCBasicDemoInitialize
  6345 ;;		_APP_LEDUpdateUSBStatus
  6346 ;;		_CDCInitEP
  6347 ;;		_USBCheckCDCRequest
  6348 ;;		i2_SYSTEM_Initialize
  6349 ;; This function is called by:
  6350 ;;		_USBDeviceTasks
  6351 ;;		_USBStdSetCfgHandler
  6352 ;;		_USBSuspend
  6353 ;;		_USBWakeFromSuspend
  6354 ;;		_USBCtrlTrfSetupHandler
  6355 ;;		_USBCheckStdRequest
  6356 ;;		_USBStdFeatureReqHandler
  6357 ;; This function uses a non-reentrant model
  6358 ;;
  6359                           
  6360                           	psect	text32
  6361  0028CA                     __ptext32:
  6362                           	opt callstack 0
  6363  0028CA                     _USER_USB_CALLBACK_EVENT_HANDLER:
  6364                           	opt callstack 22
  6365                           
  6366                           ;../demo_src/usb_events.c: 51: _Bool USER_USB_CALLBACK_EVENT_HANDLER(USB_EVENT event, vo
      +                          id *pdata, uint16_t size);../demo_src/usb_events.c: 52: {;../demo_src/usb_events.c: 53: 
      +                              switch( (int) event )
  6367                           
  6368                           ;incstack = 0
  6369  0028CA  D017               	goto	i2l3599
  6370  0028CC                     i2l3585:
  6371                           
  6372                           ;../demo_src/usb_events.c: 61:             APP_LEDUpdateUSBStatus();
  6373  0028CC  ECD4  F013         	call	_APP_LEDUpdateUSBStatus	;wreg free
  6374                           
  6375                           ;../demo_src/usb_events.c: 62:             break;
  6376  0028D0  0012               	return	
  6377  0028D2                     i2l3587:
  6378                           
  6379                           ;../demo_src/usb_events.c: 66:             APP_LEDUpdateUSBStatus();
  6380  0028D2  ECD4  F013         	call	_APP_LEDUpdateUSBStatus	;wreg free
  6381                           
  6382                           ;../demo_src/usb_events.c: 74:             SYSTEM_Initialize(SYSTEM_STATE_USB_SUSPEND);
  6383  0028D6  0E01               	movlw	1
  6384  0028D8  ECDF  F014         	call	i2_SYSTEM_Initialize
  6385                           
  6386                           ;../demo_src/usb_events.c: 75:             break;
  6387  0028DC  0012               	return	
  6388  0028DE                     i2l3589:
  6389                           
  6390                           ;../demo_src/usb_events.c: 79:             APP_LEDUpdateUSBStatus();
  6391  0028DE  ECD4  F013         	call	_APP_LEDUpdateUSBStatus	;wreg free
  6392                           
  6393                           ;../demo_src/usb_events.c: 85:             SYSTEM_Initialize(SYSTEM_STATE_USB_RESUME);
  6394  0028E2  0E02               	movlw	2
  6395  0028E4  ECDF  F014         	call	i2_SYSTEM_Initialize
  6396                           
  6397                           ;../demo_src/usb_events.c: 86:             break;
  6398  0028E8  0012               	return	
  6399  0028EA                     i2l3591:
  6400                           
  6401                           ;../demo_src/usb_events.c: 91:             CDCInitEP();
  6402  0028EA  EC16  F015         	call	_CDCInitEP	;wreg free
  6403                           
  6404                           ;../demo_src/usb_events.c: 92:             APP_DeviceCDCBasicDemoInitialize();
  6405  0028EE  EC18  F017         	call	_APP_DeviceCDCBasicDemoInitialize	;wreg free
  6406                           
  6407                           ;../demo_src/usb_events.c: 93:             break;
  6408  0028F2  0012               	return	
  6409  0028F4                     i2l3595:
  6410                           
  6411                           ;../demo_src/usb_events.c: 101:             USBCheckCDCRequest();
  6412  0028F4  EC41  F012         	call	_USBCheckCDCRequest	;wreg free
  6413                           
  6414                           ;../demo_src/usb_events.c: 102:             break;
  6415  0028F8  0012               	return	
  6416  0028FA                     i2l3599:
  6417  0028FA  C00D  F013         	movff	USER_USB_CALLBACK_EVENT_HANDLER@event,??_USER_USB_CALLBACK_EVENT_HANDLER
  6418  0028FE  C00E  F014         	movff	USER_USB_CALLBACK_EVENT_HANDLER@event+1,??_USER_USB_CALLBACK_EVENT_HANDLER+1
  6419                           
  6420                           ; Switch on 2 bytes has been partitioned into a top level switch of size 1, and 2 sub-sw
      +                          itches
  6421                           ; Switch size 1, requested type "simple"
  6422                           ; Number of cases is 2, Range of values is 0 to 127
  6423                           ; switch strategies available:
  6424                           ; Name         Instructions Cycles
  6425                           ; simple_byte            7     4 (average)
  6426                           ;	Chosen strategy is simple_byte
  6427  002902  5014               	movf	??_USER_USB_CALLBACK_EVENT_HANDLER+1,w,c
  6428  002904  0A00               	xorlw	0	; case 0
  6429  002906  B4D8               	btfsc	status,2,c
  6430  002908  D004               	goto	i2l6001
  6431  00290A  0A7F               	xorlw	127	; case 127
  6432  00290C  A4D8               	btfss	status,2,c
  6433  00290E  0012               	return	
  6434  002910  D01A               	goto	i2l6003
  6435  002912                     i2l6001:
  6436                           
  6437                           ; Switch size 1, requested type "simple"
  6438                           ; Number of cases is 8, Range of values is 1 to 117
  6439                           ; switch strategies available:
  6440                           ; Name         Instructions Cycles
  6441                           ; simple_byte           25    13 (average)
  6442                           ;	Chosen strategy is simple_byte
  6443  002912  5013               	movf	??_USER_USB_CALLBACK_EVENT_HANDLER,w,c
  6444  002914  0A01               	xorlw	1	; case 1
  6445  002916  B4D8               	btfsc	status,2,c
  6446  002918  D7E8               	goto	i2l3591
  6447  00291A  0A03               	xorlw	3	; case 2
  6448  00291C  B4D8               	btfsc	status,2,c
  6449  00291E  0012               	return	
  6450  002920  0A01               	xorlw	1	; case 3
  6451  002922  B4D8               	btfsc	status,2,c
  6452  002924  D7E7               	goto	i2l3595
  6453  002926  0A06               	xorlw	6	; case 5
  6454  002928  B4D8               	btfsc	status,2,c
  6455  00292A  0012               	return	
  6456  00292C  0A77               	xorlw	119	; case 114
  6457  00292E  B4D8               	btfsc	status,2,c
  6458  002930  0012               	return	
  6459  002932  0A01               	xorlw	1	; case 115
  6460  002934  B4D8               	btfsc	status,2,c
  6461  002936  D7CA               	goto	i2l3585
  6462  002938  0A07               	xorlw	7	; case 116
  6463  00293A  B4D8               	btfsc	status,2,c
  6464  00293C  D7D0               	goto	i2l3589
  6465  00293E  0A01               	xorlw	1	; case 117
  6466  002940  A4D8               	btfss	status,2,c
  6467  002942  0012               	return	
  6468  002944  D7C6               	goto	i2l3587
  6469  002946                     i2l6003:
  6470                           
  6471                           ; Switch size 1, requested type "simple"
  6472                           ; Number of cases is 1, Range of values is 255 to 255
  6473                           ; switch strategies available:
  6474                           ; Name         Instructions Cycles
  6475                           ; simple_byte            4     3 (average)
  6476                           ;	Chosen strategy is simple_byte
  6477  002946  5013               	movf	??_USER_USB_CALLBACK_EVENT_HANDLER,w,c
  6478  002948  0AFF               	xorlw	255	; case 255
  6479  00294A  0012               	return	
  6480  00294C                     __end_of_USER_USB_CALLBACK_EVENT_HANDLER:
  6481                           	opt callstack 0
  6482                           
  6483 ;; *************** function i2_SYSTEM_Initialize *****************
  6484 ;; Defined at:
  6485 ;;		line 60 in file "system.c"
  6486 ;; Parameters:    Size  Location     Type
  6487 ;;  state           1    wreg     enum E5844
  6488 ;; Auto vars:     Size  Location     Type
  6489 ;;  state           1    9[COMRAM] enum E5844
  6490 ;;  SYSTEM_Initi    2    7[COMRAM] unsigned int 
  6491 ;;  SYSTEM_Initi    2    5[COMRAM] unsigned int 
  6492 ;; Return value:  Size  Location     Type
  6493 ;;                  1    wreg      void 
  6494 ;; Registers used:
  6495 ;;		wreg, status,2, status,0, cstack
  6496 ;; Tracked objects:
  6497 ;;		On entry : 0/0
  6498 ;;		On exit  : 0/0
  6499 ;;		Unchanged: 0/0
  6500 ;; Data sizes:     COMRAM   BANK0   BANK1   BANK2   BANK3   BANK4   BANK5   BANK6   BANK7   BANK8   BANK9  BANK10  BANK1
      +1  BANK12  BANK13  BANK14
  6501 ;;      Params:         0       0       0       0       0       0       0       0       0       0       0       0       
      +0       0       0       0
  6502 ;;      Locals:         5       0       0       0       0       0       0       0       0       0       0       0       
      +0       0       0       0
  6503 ;;      Temps:          2       0       0       0       0       0       0       0       0       0       0       0       
      +0       0       0       0
  6504 ;;      Totals:         7       0       0       0       0       0       0       0       0       0       0       0       
      +0       0       0       0
  6505 ;;Total ram usage:        7 bytes
  6506 ;; Hardware stack levels used:    1
  6507 ;; Hardware stack levels required when called:    1
  6508 ;; This function calls:
  6509 ;;		i2_BUTTON_Enable
  6510 ;;		i2_LED_Enable
  6511 ;; This function is called by:
  6512 ;;		_USER_USB_CALLBACK_EVENT_HANDLER
  6513 ;; This function uses a non-reentrant model
  6514 ;;
  6515                           
  6516                           	psect	text33
  6517  0029BE                     __ptext33:
  6518                           	opt callstack 0
  6519  0029BE                     i2_SYSTEM_Initialize:
  6520                           	opt callstack 23
  6521                           
  6522                           ;incstack = 0
  6523                           ;i2SYSTEM_Initialize@state stored from wreg
  6524  0029BE  6E0A               	movwf	i2SYSTEM_Initialize@state,c
  6525                           
  6526                           ;system.c: 60: void SYSTEM_Initialize( SYSTEM_STATE state );system.c: 61: {;system.c: 62
      +                          :     switch(state)
  6527  0029C0  D023               	goto	i2l3577
  6528  0029C2                     i2l3563:
  6529                           
  6530                           ;system.c: 71:              {;system.c: 72:                  unsigned int pll_startup_co
      +                          unter = 600;
  6531  0029C2  0E02               	movlw	2
  6532  0029C4  6E07               	movwf	i2SYSTEM_Initialize@pll_startup_counter+1,c
  6533  0029C6  0E58               	movlw	88
  6534  0029C8  6E06               	movwf	i2SYSTEM_Initialize@pll_startup_counter,c
  6535                           
  6536                           ;system.c: 73:                  OSCTUNEbits.PLLEN = 1;
  6537  0029CA  8C9B               	bsf	3995,6,c	;volatile
  6538  0029CC                     i2l3567:
  6539  0029CC  0606               	decf	i2SYSTEM_Initialize@pll_startup_counter,f,c
  6540  0029CE  A0D8               	btfss	status,0,c
  6541  0029D0  0607               	decf	i2SYSTEM_Initialize@pll_startup_counter+1,f,c
  6542  0029D2  2806               	incf	i2SYSTEM_Initialize@pll_startup_counter,w,c
  6543  0029D4  E1FB               	bnz	i2l3567
  6544  0029D6  2807               	incf	i2SYSTEM_Initialize@pll_startup_counter+1,w,c
  6545  0029D8  A4D8               	btfss	status,2,c
  6546  0029DA  D7F8               	goto	i2l3567
  6547                           
  6548                           ;system.c: 75:              };system.c: 78:             LED_Enable(LED_D1);
  6549  0029DC  0E01               	movlw	1
  6550  0029DE  EC8D  F016         	call	i2_LED_Enable
  6551                           
  6552                           ;system.c: 79:             BUTTON_Enable(BUTTON_S2);
  6553  0029E2  0E01               	movlw	1
  6554  0029E4  EC03  F017         	call	i2_BUTTON_Enable
  6555                           
  6556                           ;system.c: 80:             break;
  6557  0029E8  0012               	return	
  6558  0029EA                     i2l3571:
  6559                           
  6560                           ;system.c: 94:             OSCCON = 0x70;
  6561  0029EA  0E70               	movlw	112
  6562  0029EC  6ED3               	movwf	4051,c	;volatile
  6563                           
  6564                           ;system.c: 100:             {;system.c: 101:                 unsigned int pll_startup_co
      +                          unter = 800;
  6565  0029EE  0E03               	movlw	3
  6566  0029F0  6E09               	movwf	i2SYSTEM_Initialize@pll_startup_counter_2775+1,c
  6567  0029F2  0E20               	movlw	32
  6568  0029F4  6E08               	movwf	i2SYSTEM_Initialize@pll_startup_counter_2775,c
  6569  0029F6                     i2l3573:
  6570  0029F6  0608               	decf	i2SYSTEM_Initialize@pll_startup_counter_2775,f,c
  6571  0029F8  A0D8               	btfss	status,0,c
  6572  0029FA  0609               	decf	i2SYSTEM_Initialize@pll_startup_counter_2775+1,f,c
  6573  0029FC  2808               	incf	i2SYSTEM_Initialize@pll_startup_counter_2775,w,c
  6574  0029FE  E1FB               	bnz	i2l3573
  6575  002A00  2809               	incf	i2SYSTEM_Initialize@pll_startup_counter_2775+1,w,c
  6576  002A02  B4D8               	btfsc	status,2,c
  6577  002A04  0012               	return	
  6578  002A06  D7F7               	goto	i2l3573
  6579  002A08                     i2l3577:
  6580  002A08  500A               	movf	i2SYSTEM_Initialize@state,w,c
  6581  002A0A  6E04               	movwf	??i2_SYSTEM_Initialize& (0+255),c
  6582  002A0C  6A05               	clrf	(??i2_SYSTEM_Initialize+1)& (0+255),c
  6583                           
  6584                           ; Switch on 2 bytes has been partitioned into a top level switch of size 1, and 1 sub-sw
      +                          itches
  6585                           ; Switch size 1, requested type "simple"
  6586                           ; Number of cases is 1, Range of values is 0 to 0
  6587                           ; switch strategies available:
  6588                           ; Name         Instructions Cycles
  6589                           ; simple_byte            4     3 (average)
  6590                           ;	Chosen strategy is simple_byte
  6591  002A0E  5005               	movf	??i2_SYSTEM_Initialize+1,w,c
  6592  002A10  0A00               	xorlw	0	; case 0
  6593  002A12  A4D8               	btfss	status,2,c
  6594  002A14  0012               	return	
  6595                           
  6596                           ; Switch size 1, requested type "simple"
  6597                           ; Number of cases is 3, Range of values is 0 to 2
  6598                           ; switch strategies available:
  6599                           ; Name         Instructions Cycles
  6600                           ; simple_byte           10     6 (average)
  6601                           ;	Chosen strategy is simple_byte
  6602  002A16  5004               	movf	??i2_SYSTEM_Initialize,w,c
  6603  002A18  0A00               	xorlw	0	; case 0
  6604  002A1A  B4D8               	btfsc	status,2,c
  6605  002A1C  D7D2               	goto	i2l3563
  6606  002A1E  0A01               	xorlw	1	; case 1
  6607  002A20  B4D8               	btfsc	status,2,c
  6608  002A22  0012               	return	
  6609  002A24  0A03               	xorlw	3	; case 2
  6610  002A26  A4D8               	btfss	status,2,c
  6611  002A28  0012               	return	
  6612  002A2A  D7DF               	goto	i2l3571
  6613  002A2C                     __end_ofi2_SYSTEM_Initialize:
  6614                           	opt callstack 0
  6615                           
  6616 ;; *************** function i2_LED_Enable *****************
  6617 ;; Defined at:
  6618 ;;		line 186 in file "../../../../../../bsp/pic18f46j50_pim/leds.c"
  6619 ;; Parameters:    Size  Location     Type
  6620 ;;  led             1    wreg     enum E2
  6621 ;; Auto vars:     Size  Location     Type
  6622 ;;  led             1    2[COMRAM] enum E2
  6623 ;; Return value:  Size  Location     Type
  6624 ;;                  1    wreg      void 
  6625 ;; Registers used:
  6626 ;;		wreg, status,2, status,0
  6627 ;; Tracked objects:
  6628 ;;		On entry : 0/0
  6629 ;;		On exit  : 0/0
  6630 ;;		Unchanged: 0/0
  6631 ;; Data sizes:     COMRAM   BANK0   BANK1   BANK2   BANK3   BANK4   BANK5   BANK6   BANK7   BANK8   BANK9  BANK10  BANK1
      +1  BANK12  BANK13  BANK14
  6632 ;;      Params:         0       0       0       0       0       0       0       0       0       0       0       0       
      +0       0       0       0
  6633 ;;      Locals:         1       0       0       0       0       0       0       0       0       0       0       0       
      +0       0       0       0
  6634 ;;      Temps:          2       0       0       0       0       0       0       0       0       0       0       0       
      +0       0       0       0
  6635 ;;      Totals:         3       0       0       0       0       0       0       0       0       0       0       0       
      +0       0       0       0
  6636 ;;Total ram usage:        3 bytes
  6637 ;; Hardware stack levels used:    1
  6638 ;; This function calls:
  6639 ;;		Nothing
  6640 ;; This function is called by:
  6641 ;;		i2_SYSTEM_Initialize
  6642 ;; This function uses a non-reentrant model
  6643 ;;
  6644                           
  6645                           	psect	text34
  6646  002D1A                     __ptext34:
  6647                           	opt callstack 0
  6648  002D1A                     i2_LED_Enable:
  6649                           	opt callstack 23
  6650                           
  6651                           ;incstack = 0
  6652                           ;i2LED_Enable@led stored from wreg
  6653  002D1A  6E03               	movwf	i2LED_Enable@led,c
  6654                           
  6655                           ;../../../../../../bsp/pic18f46j50_pim/leds.c: 186: void LED_Enable(LED led);../../../..
      +                          /../../bsp/pic18f46j50_pim/leds.c: 187: {;../../../../../../bsp/pic18f46j50_pim/leds.c: 
      +                          188:     switch(led)
  6656  002D1C  D004               	goto	i2l3425
  6657  002D1E                     i2l60:
  6658                           
  6659                           ;../../../../../../bsp/pic18f46j50_pim/leds.c: 191:             TRISEbits.TRISE0 = 0;
  6660  002D1E  9096               	bcf	3990,0,c	;volatile
  6661                           
  6662                           ;../../../../../../bsp/pic18f46j50_pim/leds.c: 192:             break;
  6663  002D20  0012               	return	
  6664  002D22                     i2l62:
  6665                           
  6666                           ;../../../../../../bsp/pic18f46j50_pim/leds.c: 195:             TRISEbits.TRISE1 = 0;
  6667  002D22  9296               	bcf	3990,1,c	;volatile
  6668                           
  6669                           ;../../../../../../bsp/pic18f46j50_pim/leds.c: 196:             break;
  6670  002D24  0012               	return	
  6671  002D26                     i2l3425:
  6672  002D26  5003               	movf	i2LED_Enable@led,w,c
  6673  002D28  6E01               	movwf	??i2_LED_Enable& (0+255),c
  6674  002D2A  6A02               	clrf	(??i2_LED_Enable+1)& (0+255),c
  6675                           
  6676                           ; Switch on 2 bytes has been partitioned into a top level switch of size 1, and 1 sub-sw
      +                          itches
  6677                           ; Switch size 1, requested type "simple"
  6678                           ; Number of cases is 1, Range of values is 0 to 0
  6679                           ; switch strategies available:
  6680                           ; Name         Instructions Cycles
  6681                           ; simple_byte            4     3 (average)
  6682                           ;	Chosen strategy is simple_byte
  6683  002D2C  5002               	movf	??i2_LED_Enable+1,w,c
  6684  002D2E  0A00               	xorlw	0	; case 0
  6685  002D30  A4D8               	btfss	status,2,c
  6686  002D32  0012               	return	
  6687                           
  6688                           ; Switch size 1, requested type "simple"
  6689                           ; Number of cases is 3, Range of values is 0 to 2
  6690                           ; switch strategies available:
  6691                           ; Name         Instructions Cycles
  6692                           ; simple_byte           10     6 (average)
  6693                           ;	Chosen strategy is simple_byte
  6694  002D34  5001               	movf	??i2_LED_Enable,w,c
  6695  002D36  0A00               	xorlw	0	; case 0
  6696  002D38  B4D8               	btfsc	status,2,c
  6697  002D3A  0012               	return	
  6698  002D3C  0A01               	xorlw	1	; case 1
  6699  002D3E  B4D8               	btfsc	status,2,c
  6700  002D40  D7EE               	goto	i2l60
  6701  002D42  0A03               	xorlw	3	; case 2
  6702  002D44  A4D8               	btfss	status,2,c
  6703  002D46  0012               	return	
  6704  002D48  D7EC               	goto	i2l62
  6705  002D4A                     __end_ofi2_LED_Enable:
  6706                           	opt callstack 0
  6707                           
  6708 ;; *************** function i2_BUTTON_Enable *****************
  6709 ;; Defined at:
  6710 ;;		line 88 in file "../../../../../../bsp/pic18f46j50_pim/buttons.c"
  6711 ;; Parameters:    Size  Location     Type
  6712 ;;  button          1    wreg     enum E5821
  6713 ;; Auto vars:     Size  Location     Type
  6714 ;;  button          1    2[COMRAM] enum E5821
  6715 ;; Return value:  Size  Location     Type
  6716 ;;                  1    wreg      void 
  6717 ;; Registers used:
  6718 ;;		wreg, status,2, status,0
  6719 ;; Tracked objects:
  6720 ;;		On entry : 0/0
  6721 ;;		On exit  : 0/0
  6722 ;;		Unchanged: 0/0
  6723 ;; Data sizes:     COMRAM   BANK0   BANK1   BANK2   BANK3   BANK4   BANK5   BANK6   BANK7   BANK8   BANK9  BANK10  BANK1
      +1  BANK12  BANK13  BANK14
  6724 ;;      Params:         0       0       0       0       0       0       0       0       0       0       0       0       
      +0       0       0       0
  6725 ;;      Locals:         1       0       0       0       0       0       0       0       0       0       0       0       
      +0       0       0       0
  6726 ;;      Temps:          2       0       0       0       0       0       0       0       0       0       0       0       
      +0       0       0       0
  6727 ;;      Totals:         3       0       0       0       0       0       0       0       0       0       0       0       
      +0       0       0       0
  6728 ;;Total ram usage:        3 bytes
  6729 ;; Hardware stack levels used:    1
  6730 ;; This function calls:
  6731 ;;		Nothing
  6732 ;; This function is called by:
  6733 ;;		i2_SYSTEM_Initialize
  6734 ;; This function uses a non-reentrant model
  6735 ;;
  6736                           
  6737                           	psect	text35
  6738  002E06                     __ptext35:
  6739                           	opt callstack 0
  6740  002E06                     i2_BUTTON_Enable:
  6741                           	opt callstack 23
  6742                           
  6743                           ;incstack = 0
  6744                           ;i2BUTTON_Enable@button stored from wreg
  6745  002E06  6E03               	movwf	i2BUTTON_Enable@button,c
  6746                           
  6747                           ;../../../../../../bsp/pic18f46j50_pim/buttons.c: 88: void BUTTON_Enable(BUTTON button);
      +                          ../../../../../../bsp/pic18f46j50_pim/buttons.c: 89: {;../../../../../../bsp/pic18f46j50
      +                          _pim/buttons.c: 90:     switch(button)
  6748  002E08  D004               	goto	i2l3415
  6749  002E0A                     i2l17:
  6750                           
  6751                           ;../../../../../../bsp/pic18f46j50_pim/buttons.c: 93:             TRISBbits.TRISB2 = 1;
  6752  002E0A  8493               	bsf	3987,2,c	;volatile
  6753                           
  6754                           ;../../../../../../bsp/pic18f46j50_pim/buttons.c: 94:             ANCON1bits.PCFG8 = 1;
  6755  002E0C  010F               	movlb	15	; () banked
  6756  002E0E  8149               	bsf	73,0,b	;volatile
  6757                           
  6758                           ;../../../../../../bsp/pic18f46j50_pim/buttons.c: 95:             break;
  6759  002E10  0012               	return	
  6760  002E12                     i2l3415:
  6761  002E12  5003               	movf	i2BUTTON_Enable@button,w,c
  6762  002E14  6E01               	movwf	??i2_BUTTON_Enable& (0+255),c
  6763  002E16  6A02               	clrf	(??i2_BUTTON_Enable+1)& (0+255),c
  6764                           
  6765                           ; Switch on 2 bytes has been partitioned into a top level switch of size 1, and 1 sub-sw
      +                          itches
  6766                           ; Switch size 1, requested type "simple"
  6767                           ; Number of cases is 1, Range of values is 0 to 0
  6768                           ; switch strategies available:
  6769                           ; Name         Instructions Cycles
  6770                           ; simple_byte            4     3 (average)
  6771                           ;	Chosen strategy is simple_byte
  6772  002E18  5002               	movf	??i2_BUTTON_Enable+1,w,c
  6773  002E1A  0A00               	xorlw	0	; case 0
  6774  002E1C  A4D8               	btfss	status,2,c
  6775  002E1E  0012               	return	
  6776                           
  6777                           ; Switch size 1, requested type "simple"
  6778                           ; Number of cases is 2, Range of values is 0 to 1
  6779                           ; switch strategies available:
  6780                           ; Name         Instructions Cycles
  6781                           ; simple_byte            7     4 (average)
  6782                           ;	Chosen strategy is simple_byte
  6783  002E20  5001               	movf	??i2_BUTTON_Enable,w,c
  6784  002E22  0A00               	xorlw	0	; case 0
  6785  002E24  B4D8               	btfsc	status,2,c
  6786  002E26  0012               	return	
  6787  002E28  0A01               	xorlw	1	; case 1
  6788  002E2A  A4D8               	btfss	status,2,c
  6789  002E2C  0012               	return	
  6790  002E2E  D7ED               	goto	i2l17
  6791  002E30                     __end_ofi2_BUTTON_Enable:
  6792                           	opt callstack 0
  6793                           
  6794 ;; *************** function _USBCheckCDCRequest *****************
  6795 ;; Defined at:
  6796 ;;		line 148 in file "../../../../../../framework/usb/src/usb_device_cdc.c"
  6797 ;; Parameters:    Size  Location     Type
  6798 ;;		None
  6799 ;; Auto vars:     Size  Location     Type
  6800 ;;		None
  6801 ;; Return value:  Size  Location     Type
  6802 ;;                  1    wreg      void 
  6803 ;; Registers used:
  6804 ;;		wreg, status,2, status,0
  6805 ;; Tracked objects:
  6806 ;;		On entry : 0/0
  6807 ;;		On exit  : 0/0
  6808 ;;		Unchanged: 0/0
  6809 ;; Data sizes:     COMRAM   BANK0   BANK1   BANK2   BANK3   BANK4   BANK5   BANK6   BANK7   BANK8   BANK9  BANK10  BANK1
      +1  BANK12  BANK13  BANK14
  6810 ;;      Params:         0       0       0       0       0       0       0       0       0       0       0       0       
      +0       0       0       0
  6811 ;;      Locals:         0       0       0       0       0       0       0       0       0       0       0       0       
      +0       0       0       0
  6812 ;;      Temps:          2       0       0       0       0       0       0       0       0       0       0       0       
      +0       0       0       0
  6813 ;;      Totals:         2       0       0       0       0       0       0       0       0       0       0       0       
      +0       0       0       0
  6814 ;;Total ram usage:        2 bytes
  6815 ;; Hardware stack levels used:    1
  6816 ;; This function calls:
  6817 ;;		Nothing
  6818 ;; This function is called by:
  6819 ;;		_USER_USB_CALLBACK_EVENT_HANDLER
  6820 ;; This function uses a non-reentrant model
  6821 ;;
  6822                           
  6823                           	psect	text36
  6824  002482                     __ptext36:
  6825                           	opt callstack 0
  6826  002482                     _USBCheckCDCRequest:
  6827                           	opt callstack 24
  6828                           
  6829                           ;../../../../../../framework/usb/src/usb_device_cdc.c: 153:     if(SetupPkt.Recipient !=
      +                           (0x01)) return;
  6830                           
  6831                           ;incstack = 0
  6832  002482  0104               	movlb	4	; () banked
  6833  002484  5130               	movf	48,w,b	;volatile
  6834  002486  0B1F               	andlw	31
  6835  002488  06E8               	decf	wreg,f,c
  6836  00248A  A4D8               	btfss	status,2,c
  6837  00248C  0012               	return	
  6838                           
  6839                           ; BSR set to: 4
  6840                           ;../../../../../../framework/usb/src/usb_device_cdc.c: 158:     if(SetupPkt.RequestType 
      +                          != (0x20>>5)) return;
  6841  00248E  3930               	swapf	48,w,b	;volatile
  6842  002490  32E8               	rrcf	wreg,f,c
  6843  002492  0B03               	andlw	3
  6844  002494  06E8               	decf	wreg,f,c
  6845  002496  A4D8               	btfss	status,2,c
  6846  002498  0012               	return	
  6847                           
  6848                           ; BSR set to: 4
  6849                           ;../../../../../../framework/usb/src/usb_device_cdc.c: 164:     if((SetupPkt.bIntfID != 
      +                          0x0)&&
  6850  00249A  5134               	movf	52,w,b	;volatile
  6851  00249C  B4D8               	btfsc	status,2,c
  6852  00249E  D037               	goto	i2l3499
  6853                           
  6854                           ; BSR set to: 4
  6855  0024A0  0534               	decf	52,w,b	;volatile
  6856  0024A2  A4D8               	btfss	status,2,c
  6857  0024A4  0012               	return	
  6858  0024A6  D033               	goto	i2l3499
  6859  0024A8                     i2l3475:
  6860                           
  6861                           ; BSR set to: 4
  6862                           ;../../../../../../framework/usb/src/usb_device_cdc.c: 172:             inPipes[0].pSrc.
      +                          bRam = (uint8_t*)&dummy_encapsulated_cmd_response;
  6863  0024A8  0EDC               	movlw	low _dummy_encapsulated_cmd_response
  6864  0024AA  0100               	movlb	0	; () banked
  6865  0024AC  6F72               	movwf	_inPipes& (0+255),b	;volatile
  6866  0024AE  0E00               	movlw	high _dummy_encapsulated_cmd_response
  6867  0024B0  6F73               	movwf	(_inPipes+1)& (0+255),b	;volatile
  6868                           
  6869                           ; BSR set to: 0
  6870                           ;../../../../../../framework/usb/src/usb_device_cdc.c: 173:             inPipes[0].wCoun
      +                          t.Val = 0x08;
  6871  0024B2  0E00               	movlw	0
  6872  0024B4  6F77               	movwf	(_inPipes+5)& (0+255),b	;volatile
  6873  0024B6  0E08               	movlw	8
  6874  0024B8  6F76               	movwf	(_inPipes+4)& (0+255),b	;volatile
  6875                           
  6876                           ; BSR set to: 0
  6877                           ;../../../../../../framework/usb/src/usb_device_cdc.c: 174:             inPipes[0].info.
      +                          bits.ctrl_trf_mem = 0x01;
  6878  0024BA  8175               	bsf	(_inPipes+3)& (0+255),0,b	;volatile
  6879                           
  6880                           ; BSR set to: 0
  6881                           ;../../../../../../framework/usb/src/usb_device_cdc.c: 175:             inPipes[0].info.
      +                          bits.busy = 1;
  6882  0024BC  8F75               	bsf	(_inPipes+3)& (0+255),7,b	;volatile
  6883                           
  6884                           ;../../../../../../framework/usb/src/usb_device_cdc.c: 176:             break;
  6885  0024BE  0012               	return	
  6886  0024C0                     i2l3483:
  6887                           
  6888                           ; BSR set to: 4
  6889                           ;../../../../../../framework/usb/src/usb_device_cdc.c: 179:             inPipes[0].pSrc.
      +                          bRam = (uint8_t*)&dummy_encapsulated_cmd_response;
  6890  0024C0  0EDC               	movlw	low _dummy_encapsulated_cmd_response
  6891  0024C2  0100               	movlb	0	; () banked
  6892  0024C4  6F72               	movwf	_inPipes& (0+255),b	;volatile
  6893  0024C6  0E00               	movlw	high _dummy_encapsulated_cmd_response
  6894  0024C8  6F73               	movwf	(_inPipes+1)& (0+255),b	;volatile
  6895                           
  6896                           ; BSR set to: 0
  6897                           ;../../../../../../framework/usb/src/usb_device_cdc.c: 180:             inPipes[0].info.
      +                          bits.busy = 1;
  6898  0024CA  8F75               	bsf	(_inPipes+3)& (0+255),7,b	;volatile
  6899                           
  6900                           ;../../../../../../framework/usb/src/usb_device_cdc.c: 181:             break;
  6901  0024CC  0012               	return	
  6902  0024CE                     i2l516:
  6903                           
  6904                           ; BSR set to: 4
  6905                           ;../../../../../../framework/usb/src/usb_device_cdc.c: 186:             outPipes[0].wCou
      +                          nt.Val = SetupPkt.wLength;
  6906  0024CE  C436 F06E          	movff	1078,_outPipes+4	;volatile
  6907  0024D2  C437 F06F          	movff	1079,_outPipes+5	;volatile
  6908                           
  6909                           ; BSR set to: 4
  6910                           ;../../../../../../framework/usb/src/usb_device_cdc.c: 187:             outPipes[0].pDst
      +                          .bRam = (uint8_t*)&line_coding._byte[0];
  6911  0024D6  0E46               	movlw	low _line_coding
  6912  0024D8  0100               	movlb	0	; () banked
  6913  0024DA  6F6A               	movwf	_outPipes& (0+255),b	;volatile
  6914  0024DC  0E00               	movlw	high _line_coding
  6915  0024DE  6F6B               	movwf	(_outPipes+1)& (0+255),b	;volatile
  6916                           
  6917                           ;../../../../../../framework/usb/src/usb_device_cdc.c: 188:             outPipes[0].pFun
      +                          c = ((void*)0);
  6918  0024E0  0E00               	movlw	0
  6919  0024E2  6F70               	movwf	(_outPipes+6)& (0+255),b	;volatile
  6920  0024E4  0E00               	movlw	0
  6921  0024E6  6F71               	movwf	(_outPipes+7)& (0+255),b	;volatile
  6922                           
  6923                           ; BSR set to: 0
  6924                           ;../../../../../../framework/usb/src/usb_device_cdc.c: 189:             outPipes[0].info
      +                          .bits.busy = 1;
  6925  0024E8  8F6D               	bsf	(_outPipes+3)& (0+255),7,b	;volatile
  6926                           
  6927                           ;../../../../../../framework/usb/src/usb_device_cdc.c: 190:             break;
  6928  0024EA  0012               	return	
  6929  0024EC                     i2l3491:
  6930                           
  6931                           ; BSR set to: 4
  6932                           ;../../../../../../framework/usb/src/usb_device_cdc.c: 193:             { inPipes[0].pSr
      +                          c.bRam = (uint8_t*)&line_coding; inPipes[0].wCount.Val = 0x07; inPipes[0].info.Val = 0x4
      +                          0 | 0x80 | 0x01; };
  6933  0024EC  0E46               	movlw	low _line_coding
  6934  0024EE  0100               	movlb	0	; () banked
  6935  0024F0  6F72               	movwf	_inPipes& (0+255),b	;volatile
  6936  0024F2  0E00               	movlw	high _line_coding
  6937  0024F4  6F73               	movwf	(_inPipes+1)& (0+255),b	;volatile
  6938                           
  6939                           ; BSR set to: 0
  6940  0024F6  0E00               	movlw	0
  6941  0024F8  6F77               	movwf	(_inPipes+5)& (0+255),b	;volatile
  6942  0024FA  0E07               	movlw	7
  6943  0024FC  6F76               	movwf	(_inPipes+4)& (0+255),b	;volatile
  6944                           
  6945                           ; BSR set to: 0
  6946  0024FE  0EC1               	movlw	193
  6947  002500  6F75               	movwf	(_inPipes+3)& (0+255),b	;volatile
  6948                           
  6949                           ;../../../../../../framework/usb/src/usb_device_cdc.c: 197:             break;
  6950  002502  0012               	return	
  6951  002504                     i2l518:
  6952                           
  6953                           ; BSR set to: 4
  6954                           ;../../../../../../framework/usb/src/usb_device_cdc.c: 200:             control_signal_b
      +                          itmap._byte = (uint8_t)SetupPkt.wValue;
  6955  002504  C432 F036          	movff	1074,_control_signal_bitmap	;volatile
  6956                           
  6957                           ;../../../../../../framework/usb/src/usb_device_cdc.c: 232:             inPipes[0].info.
      +                          bits.busy = 1;
  6958  002508  0100               	movlb	0	; () banked
  6959  00250A  8F75               	bsf	(_inPipes+3)& (0+255),7,b	;volatile
  6960                           
  6961                           ;../../../../../../framework/usb/src/usb_device_cdc.c: 233:             break;
  6962  00250C  0012               	return	
  6963  00250E                     i2l3499:
  6964                           
  6965                           ; BSR set to: 4
  6966  00250E  5131               	movf	49,w,b	;volatile
  6967  002510  6E01               	movwf	??_USBCheckCDCRequest& (0+255),c
  6968  002512  6A02               	clrf	(??_USBCheckCDCRequest+1)& (0+255),c
  6969                           
  6970                           ; Switch on 2 bytes has been partitioned into a top level switch of size 1, and 1 sub-sw
      +                          itches
  6971                           ; Switch size 1, requested type "simple"
  6972                           ; Number of cases is 1, Range of values is 0 to 0
  6973                           ; switch strategies available:
  6974                           ; Name         Instructions Cycles
  6975                           ; simple_byte            4     3 (average)
  6976                           ;	Chosen strategy is simple_byte
  6977  002514  5002               	movf	??_USBCheckCDCRequest+1,w,c
  6978  002516  0A00               	xorlw	0	; case 0
  6979  002518  A4D8               	btfss	status,2,c
  6980  00251A  0012               	return	
  6981                           
  6982                           ; BSR set to: 4
  6983                           ; Switch size 1, requested type "simple"
  6984                           ; Number of cases is 5, Range of values is 0 to 34
  6985                           ; switch strategies available:
  6986                           ; Name         Instructions Cycles
  6987                           ; simple_byte           16     9 (average)
  6988                           ;	Chosen strategy is simple_byte
  6989  00251C  5001               	movf	??_USBCheckCDCRequest,w,c
  6990  00251E  0A00               	xorlw	0	; case 0
  6991  002520  B4D8               	btfsc	status,2,c
  6992  002522  D7C2               	goto	i2l3475
  6993  002524  0A01               	xorlw	1	; case 1
  6994  002526  B4D8               	btfsc	status,2,c
  6995  002528  D7CB               	goto	i2l3483
  6996  00252A  0A21               	xorlw	33	; case 32
  6997  00252C  B4D8               	btfsc	status,2,c
  6998  00252E  D7CF               	goto	i2l516
  6999  002530  0A01               	xorlw	1	; case 33
  7000  002532  B4D8               	btfsc	status,2,c
  7001  002534  D7DB               	goto	i2l3491
  7002  002536  0A03               	xorlw	3	; case 34
  7003  002538  A4D8               	btfss	status,2,c
  7004  00253A  0012               	return	
  7005  00253C  D7E3               	goto	i2l518
  7006  00253E                     __end_of_USBCheckCDCRequest:
  7007                           	opt callstack 0
  7008                           
  7009 ;; *************** function _CDCInitEP *****************
  7010 ;; Defined at:
  7011 ;;		line 295 in file "../../../../../../framework/usb/src/usb_device_cdc.c"
  7012 ;; Parameters:    Size  Location     Type
  7013 ;;		None
  7014 ;; Auto vars:     Size  Location     Type
  7015 ;;		None
  7016 ;; Return value:  Size  Location     Type
  7017 ;;                  1    wreg      void 
  7018 ;; Registers used:
  7019 ;;		wreg, fsr2l, fsr2h, status,2, status,0, prodl, prodh, cstack
  7020 ;; Tracked objects:
  7021 ;;		On entry : 0/0
  7022 ;;		On exit  : 0/0
  7023 ;;		Unchanged: 0/0
  7024 ;; Data sizes:     COMRAM   BANK0   BANK1   BANK2   BANK3   BANK4   BANK5   BANK6   BANK7   BANK8   BANK9  BANK10  BANK1
      +1  BANK12  BANK13  BANK14
  7025 ;;      Params:         0       0       0       0       0       0       0       0       0       0       0       0       
      +0       0       0       0
  7026 ;;      Locals:         0       0       0       0       0       0       0       0       0       0       0       0       
      +0       0       0       0
  7027 ;;      Temps:          0       0       0       0       0       0       0       0       0       0       0       0       
      +0       0       0       0
  7028 ;;      Totals:         0       0       0       0       0       0       0       0       0       0       0       0       
      +0       0       0       0
  7029 ;;Total ram usage:        0 bytes
  7030 ;; Hardware stack levels used:    1
  7031 ;; Hardware stack levels required when called:    2
  7032 ;; This function calls:
  7033 ;;		_USBEnableEndpoint
  7034 ;;		i2_USBTransferOnePacket
  7035 ;; This function is called by:
  7036 ;;		_USER_USB_CALLBACK_EVENT_HANDLER
  7037 ;; This function uses a non-reentrant model
  7038 ;;
  7039                           
  7040                           	psect	text37
  7041  002A2C                     __ptext37:
  7042                           	opt callstack 0
  7043  002A2C                     _CDCInitEP:
  7044                           	opt callstack 22
  7045                           
  7046                           ;../../../../../../framework/usb/src/usb_device_cdc.c: 298:     line_coding.dwDTERate = 
      +                          19200;
  7047                           
  7048                           ;incstack = 0
  7049  002A2C  0E00               	movlw	0
  7050  002A2E  6E46               	movwf	_line_coding,c
  7051  002A30  0E4B               	movlw	75
  7052  002A32  6E47               	movwf	_line_coding+1,c
  7053  002A34  0E00               	movlw	0
  7054  002A36  6E48               	movwf	_line_coding+2,c
  7055  002A38  0E00               	movlw	0
  7056  002A3A  6E49               	movwf	_line_coding+3,c
  7057                           
  7058                           ;../../../../../../framework/usb/src/usb_device_cdc.c: 299:     line_coding.bCharFormat 
      +                          = 0x00;
  7059  002A3C  0E00               	movlw	0
  7060  002A3E  6E4A               	movwf	_line_coding+4,c
  7061                           
  7062                           ;../../../../../../framework/usb/src/usb_device_cdc.c: 300:     line_coding.bParityType 
      +                          = 0x00;
  7063  002A40  0E00               	movlw	0
  7064  002A42  6E4B               	movwf	_line_coding+5,c
  7065                           
  7066                           ;../../../../../../framework/usb/src/usb_device_cdc.c: 301:     line_coding.bDataBits = 
      +                          0x08;
  7067  002A44  0E08               	movlw	8
  7068  002A46  6E4C               	movwf	_line_coding+6,c
  7069                           
  7070                           ;../../../../../../framework/usb/src/usb_device_cdc.c: 303:     cdc_rx_len = 0;
  7071  002A48  0E00               	movlw	0
  7072  002A4A  0100               	movlb	0	; () banked
  7073  002A4C  6F9B               	movwf	_cdc_rx_len& (0+255),b
  7074                           
  7075                           ; BSR set to: 0
  7076                           ;../../../../../../framework/usb/src/usb_device_cdc.c: 316:     USBEnableEndpoint(1,0x02
      +                          |0x10|0x08);
  7077  002A4E  0E1A               	movlw	26
  7078  002A50  6E09               	movwf	USBEnableEndpoint@options,c
  7079  002A52  0E01               	movlw	1
  7080  002A54  EC09  F016         	call	_USBEnableEndpoint
  7081                           
  7082                           ;../../../../../../framework/usb/src/usb_device_cdc.c: 317:     USBEnableEndpoint(2,0x02
      +                          |0x04|0x10|0x08);
  7083  002A58  0E1E               	movlw	30
  7084  002A5A  6E09               	movwf	USBEnableEndpoint@options,c
  7085  002A5C  0E02               	movlw	2
  7086  002A5E  EC09  F016         	call	_USBEnableEndpoint
  7087                           
  7088                           ;../../../../../../framework/usb/src/usb_device_cdc.c: 319:     CDCDataOutHandle = USBTr
      +                          ansferOnePacket(2,0,(uint8_t*)&cdc_data_rx,sizeof(cdc_data_rx));
  7089  002A62  0E00               	movlw	0
  7090  002A64  6E01               	movwf	i2USBTransferOnePacket@dir,c
  7091  002A66  0E9C               	movlw	low _cdc_data_rx
  7092  002A68  6E02               	movwf	i2USBTransferOnePacket@data,c
  7093  002A6A  0E00               	movlw	high _cdc_data_rx
  7094  002A6C  6E03               	movwf	i2USBTransferOnePacket@data+1,c
  7095  002A6E  0E40               	movlw	64
  7096  002A70  6E04               	movwf	i2USBTransferOnePacket@len,c
  7097  002A72  0E02               	movlw	2
  7098  002A74  EC72  F00E         	call	i2_USBTransferOnePacket
  7099  002A78  C001  F096         	movff	?i2_USBTransferOnePacket,_CDCDataOutHandle
  7100  002A7C  C002  F097         	movff	?i2_USBTransferOnePacket+1,_CDCDataOutHandle+1
  7101                           
  7102                           ;../../../../../../framework/usb/src/usb_device_cdc.c: 320:     CDCDataInHandle = ((void
      +                          *)0);
  7103  002A80  0E00               	movlw	0
  7104  002A82  0100               	movlb	0	; () banked
  7105  002A84  6F94               	movwf	_CDCDataInHandle& (0+255),b
  7106  002A86  0E00               	movlw	0
  7107  002A88  6F95               	movwf	(_CDCDataInHandle+1)& (0+255),b
  7108                           
  7109                           ; BSR set to: 0
  7110                           ;../../../../../../framework/usb/src/usb_device_cdc.c: 347:     cdc_trf_state = 0;
  7111  002A8A  0E00               	movlw	0
  7112  002A8C  6E37               	movwf	_cdc_trf_state,c
  7113                           
  7114                           ; BSR set to: 0
  7115  002A8E  0012               	return		;funcret
  7116  002A90                     __end_of_CDCInitEP:
  7117                           	opt callstack 0
  7118                           
  7119 ;; *************** function i2_USBTransferOnePacket *****************
  7120 ;; Defined at:
  7121 ;;		line 999 in file "../../../../../../framework/usb/src/usb_device.c"
  7122 ;; Parameters:    Size  Location     Type
  7123 ;;  ep              1    wreg     unsigned char 
  7124 ;;  dir             1    0[COMRAM] unsigned char 
  7125 ;;  data            2    1[COMRAM] PTR unsigned char 
  7126 ;;		 -> cdc_data_tx(64), cdc_data_rx(64), NULL(0), 
  7127 ;;  len             1    3[COMRAM] unsigned char 
  7128 ;; Auto vars:     Size  Location     Type
  7129 ;;  ep              1    8[COMRAM] unsigned char 
  7130 ;;  USBTransferO    2    9[COMRAM] PTR volatile struct __BD
  7131 ;;		 -> RAM(3775), NULL(0), BDT(48), 
  7132 ;; Return value:  Size  Location     Type
  7133 ;;                  2    0[COMRAM] PTR void 
  7134 ;; Registers used:
  7135 ;;		wreg, fsr2l, fsr2h, status,2, status,0, prodl, prodh
  7136 ;; Tracked objects:
  7137 ;;		On entry : 0/0
  7138 ;;		On exit  : 0/0
  7139 ;;		Unchanged: 0/0
  7140 ;; Data sizes:     COMRAM   BANK0   BANK1   BANK2   BANK3   BANK4   BANK5   BANK6   BANK7   BANK8   BANK9  BANK10  BANK1
      +1  BANK12  BANK13  BANK14
  7141 ;;      Params:         4       0       0       0       0       0       0       0       0       0       0       0       
      +0       0       0       0
  7142 ;;      Locals:         3       0       0       0       0       0       0       0       0       0       0       0       
      +0       0       0       0
  7143 ;;      Temps:          4       0       0       0       0       0       0       0       0       0       0       0       
      +0       0       0       0
  7144 ;;      Totals:        11       0       0       0       0       0       0       0       0       0       0       0       
      +0       0       0       0
  7145 ;;Total ram usage:       11 bytes
  7146 ;; Hardware stack levels used:    1
  7147 ;; This function calls:
  7148 ;;		Nothing
  7149 ;; This function is called by:
  7150 ;;		_CDCInitEP
  7151 ;; This function uses a non-reentrant model
  7152 ;;
  7153                           
  7154                           	psect	text38
  7155  001CE4                     __ptext38:
  7156                           	opt callstack 0
  7157  001CE4                     i2_USBTransferOnePacket:
  7158                           	opt callstack 23
  7159                           
  7160                           ; BSR set to: 0
  7161                           ;incstack = 0
  7162                           ;i2USBTransferOnePacket@ep stored from wreg
  7163  001CE4  6E09               	movwf	i2USBTransferOnePacket@ep,c
  7164                           
  7165                           ;../../../../../../framework/usb/src/usb_device.c: 999: void* USBTransferOnePacket(uint8
      +                          _t ep,uint8_t dir,uint8_t* data,uint8_t len);../../../../../../framework/usb/src/usb_dev
      +                          ice.c: 1000: {;../../../../../../framework/usb/src/usb_device.c: 1001:     volatile BDT_
      +                          ENTRY* handle;;../../../../../../framework/usb/src/usb_device.c: 1004:     if(dir != 0)
  7166  001CE6  5001               	movf	i2USBTransferOnePacket@dir,w,c
  7167  001CE8  B4D8               	btfsc	status,2,c
  7168  001CEA  D007               	goto	i2l3435
  7169                           
  7170                           ;../../../../../../framework/usb/src/usb_device.c: 1005:     {;../../../../../../framewo
      +                          rk/usb/src/usb_device.c: 1007:         handle = pBDTEntryIn[ep];
  7171  001CEC  5009               	movf	i2USBTransferOnePacket@ep,w,c
  7172  001CEE  0D02               	mullw	2
  7173  001CF0  0E78               	movlw	low _pBDTEntryIn
  7174  001CF2  24F3               	addwf	prodl,w,c
  7175  001CF4  6ED9               	movwf	fsr2l,c
  7176  001CF6  0E00               	movlw	high _pBDTEntryIn
  7177  001CF8  D006               	goto	L13
  7178  001CFA                     i2l3435:
  7179                           
  7180                           ;../../../../../../framework/usb/src/usb_device.c: 1010:     {;../../../../../../framewo
      +                          rk/usb/src/usb_device.c: 1012:         handle = pBDTEntryOut[ep];
  7181  001CFA  5009               	movf	i2USBTransferOnePacket@ep,w,c
  7182  001CFC  0D02               	mullw	2
  7183  001CFE  0E7E               	movlw	low _pBDTEntryOut
  7184  001D00  24F3               	addwf	prodl,w,c
  7185  001D02  6ED9               	movwf	fsr2l,c
  7186  001D04  0E00               	movlw	high _pBDTEntryOut
  7187  001D06                     L13:
  7188  001D06  20F4               	addwfc	prodh,w,c
  7189  001D08  6EDA               	movwf	fsr2h,c
  7190  001D0A  CFDE F00A          	movff	postinc2,i2USBTransferOnePacket@handle
  7191  001D0E  CFDD F00B          	movff	postdec2,i2USBTransferOnePacket@handle+1
  7192                           
  7193                           ;../../../../../../framework/usb/src/usb_device.c: 1017:     if(handle == 0)
  7194  001D12  500A               	movf	i2USBTransferOnePacket@handle,w,c
  7195  001D14  100B               	iorwf	i2USBTransferOnePacket@handle+1,w,c
  7196  001D16  A4D8               	btfss	status,2,c
  7197  001D18  D005               	goto	i2l3443
  7198                           
  7199                           ;../../../../../../framework/usb/src/usb_device.c: 1018:     {;../../../../../../framewo
      +                          rk/usb/src/usb_device.c: 1019:         return 0;
  7200  001D1A  0E00               	movlw	0
  7201  001D1C  6E01               	movwf	?i2_USBTransferOnePacket,c
  7202  001D1E  0E00               	movlw	0
  7203  001D20  6E02               	movwf	?i2_USBTransferOnePacket+1,c
  7204  001D22  0012               	return	
  7205  001D24                     i2l3443:
  7206                           
  7207                           ;../../../../../../framework/usb/src/usb_device.c: 1033:     handle->ADR = ((uint16_t)(d
      +                          ata));
  7208  001D24  EE20 F002          	lfsr	2,2
  7209  001D28  500A               	movf	i2USBTransferOnePacket@handle,w,c
  7210  001D2A  26D9               	addwf	fsr2l,f,c
  7211  001D2C  500B               	movf	i2USBTransferOnePacket@handle+1,w,c
  7212  001D2E  22DA               	addwfc	fsr2h,f,c
  7213  001D30  C002  FFDE         	movff	i2USBTransferOnePacket@data,postinc2
  7214  001D34  C003  FFDD         	movff	i2USBTransferOnePacket@data+1,postdec2
  7215                           
  7216                           ;../../../../../../framework/usb/src/usb_device.c: 1034:     handle->CNT = len;
  7217  001D38  EE20 F001          	lfsr	2,1
  7218  001D3C  500A               	movf	i2USBTransferOnePacket@handle,w,c
  7219  001D3E  26D9               	addwf	fsr2l,f,c
  7220  001D40  500B               	movf	i2USBTransferOnePacket@handle+1,w,c
  7221  001D42  22DA               	addwfc	fsr2h,f,c
  7222  001D44  C004  FFDF         	movff	i2USBTransferOnePacket@len,indf2
  7223                           
  7224                           ;../../../../../../framework/usb/src/usb_device.c: 1035:     handle->STAT.Val &= 0x40;
  7225  001D48  C00A  FFD9         	movff	i2USBTransferOnePacket@handle,fsr2l
  7226  001D4C  C00B  FFDA         	movff	i2USBTransferOnePacket@handle+1,fsr2h
  7227  001D50  0E40               	movlw	64
  7228  001D52  16DF               	andwf	indf2,f,c
  7229                           
  7230                           ;../../../../../../framework/usb/src/usb_device.c: 1036:     handle->STAT.Val |= (0x08 &
      +                           0x08);
  7231  001D54  C00A  FFD9         	movff	i2USBTransferOnePacket@handle,fsr2l
  7232  001D58  C00B  FFDA         	movff	i2USBTransferOnePacket@handle+1,fsr2h
  7233  001D5C  0E00               	movlw	0
  7234  001D5E  86DB               	bsf	plusw2,3,c
  7235                           
  7236                           ;../../../../../../framework/usb/src/usb_device.c: 1037:     handle->STAT.Val |= 0x80;
  7237  001D60  C00A  FFD9         	movff	i2USBTransferOnePacket@handle,fsr2l
  7238  001D64  C00B  FFDA         	movff	i2USBTransferOnePacket@handle+1,fsr2h
  7239  001D68  0E00               	movlw	0
  7240  001D6A  8EDB               	bsf	plusw2,7,c
  7241                           
  7242                           ;../../../../../../framework/usb/src/usb_device.c: 1040:     if(dir != 0)
  7243  001D6C  5001               	movf	i2USBTransferOnePacket@dir,w,c
  7244  001D6E  B4D8               	btfsc	status,2,c
  7245  001D70  D018               	goto	i2l3455
  7246                           
  7247                           ;../../../../../../framework/usb/src/usb_device.c: 1041:     {;../../../../../../framewo
      +                          rk/usb/src/usb_device.c: 1043:         pBDTEntryIn[ep] = (BDT_ENTRY*)(((uint16_t)pBDTEnt
      +                          ryIn[ep]) ^ 0x0004);
  7248  001D72  5009               	movf	i2USBTransferOnePacket@ep,w,c
  7249  001D74  0D02               	mullw	2
  7250  001D76  0E78               	movlw	low _pBDTEntryIn
  7251  001D78  24F3               	addwf	prodl,w,c
  7252  001D7A  6ED9               	movwf	fsr2l,c
  7253  001D7C  0E00               	movlw	high _pBDTEntryIn
  7254  001D7E  20F4               	addwfc	prodh,w,c
  7255  001D80  6EDA               	movwf	fsr2h,c
  7256  001D82  CFDE F005          	movff	postinc2,??i2_USBTransferOnePacket
  7257  001D86  CFDD F006          	movff	postdec2,??i2_USBTransferOnePacket+1
  7258  001D8A  0E04               	movlw	4
  7259  001D8C  1805               	xorwf	??i2_USBTransferOnePacket,w,c
  7260  001D8E  6E07               	movwf	(??i2_USBTransferOnePacket+2)& (0+255),c
  7261  001D90  5006               	movf	??i2_USBTransferOnePacket+1,w,c
  7262  001D92  6E08               	movwf	(??i2_USBTransferOnePacket+3)& (0+255),c
  7263  001D94  5009               	movf	i2USBTransferOnePacket@ep,w,c
  7264  001D96  0D02               	mullw	2
  7265  001D98  0E78               	movlw	low _pBDTEntryIn
  7266  001D9A  24F3               	addwf	prodl,w,c
  7267  001D9C  6ED9               	movwf	fsr2l,c
  7268  001D9E  0E00               	movlw	high _pBDTEntryIn
  7269  001DA0  D017               	goto	L14
  7270  001DA2                     i2l3455:
  7271                           
  7272                           ;../../../../../../framework/usb/src/usb_device.c: 1046:     {;../../../../../../framewo
      +                          rk/usb/src/usb_device.c: 1048:         pBDTEntryOut[ep] = (BDT_ENTRY*)(((uint16_t)pBDTEn
      +                          tryOut[ep]) ^ 0x0004);
  7273  001DA2  5009               	movf	i2USBTransferOnePacket@ep,w,c
  7274  001DA4  0D02               	mullw	2
  7275  001DA6  0E7E               	movlw	low _pBDTEntryOut
  7276  001DA8  24F3               	addwf	prodl,w,c
  7277  001DAA  6ED9               	movwf	fsr2l,c
  7278  001DAC  0E00               	movlw	high _pBDTEntryOut
  7279  001DAE  20F4               	addwfc	prodh,w,c
  7280  001DB0  6EDA               	movwf	fsr2h,c
  7281  001DB2  CFDE F005          	movff	postinc2,??i2_USBTransferOnePacket
  7282  001DB6  CFDD F006          	movff	postdec2,??i2_USBTransferOnePacket+1
  7283  001DBA  0E04               	movlw	4
  7284  001DBC  1805               	xorwf	??i2_USBTransferOnePacket,w,c
  7285  001DBE  6E07               	movwf	(??i2_USBTransferOnePacket+2)& (0+255),c
  7286  001DC0  5006               	movf	??i2_USBTransferOnePacket+1,w,c
  7287  001DC2  6E08               	movwf	(??i2_USBTransferOnePacket+3)& (0+255),c
  7288  001DC4  5009               	movf	i2USBTransferOnePacket@ep,w,c
  7289  001DC6  0D02               	mullw	2
  7290  001DC8  0E7E               	movlw	low _pBDTEntryOut
  7291  001DCA  24F3               	addwf	prodl,w,c
  7292  001DCC  6ED9               	movwf	fsr2l,c
  7293  001DCE  0E00               	movlw	high _pBDTEntryOut
  7294  001DD0                     L14:
  7295  001DD0  20F4               	addwfc	prodh,w,c
  7296  001DD2  6EDA               	movwf	fsr2h,c
  7297  001DD4  C007  FFDE         	movff	??i2_USBTransferOnePacket+2,postinc2
  7298  001DD8  C008  FFDD         	movff	??i2_USBTransferOnePacket+3,postdec2
  7299                           
  7300                           ;../../../../../../framework/usb/src/usb_device.c: 1050:     return (void*)handle;
  7301  001DDC  C00A  F001         	movff	i2USBTransferOnePacket@handle,?i2_USBTransferOnePacket
  7302  001DE0  C00B  F002         	movff	i2USBTransferOnePacket@handle+1,?i2_USBTransferOnePacket+1
  7303  001DE4  0012               	return		;funcret
  7304  001DE6                     __end_ofi2_USBTransferOnePacket:
  7305                           	opt callstack 0
  7306                           
  7307 ;; *************** function _USBEnableEndpoint *****************
  7308 ;; Defined at:
  7309 ;;		line 882 in file "../../../../../../framework/usb/src/usb_device.c"
  7310 ;; Parameters:    Size  Location     Type
  7311 ;;  ep              1    wreg     unsigned char 
  7312 ;;  options         1    8[COMRAM] unsigned char 
  7313 ;; Auto vars:     Size  Location     Type
  7314 ;;  ep              1   11[COMRAM] unsigned char 
  7315 ;;  p               2    9[COMRAM] PTR unsigned char 
  7316 ;;		 -> UEP0(1), 
  7317 ;; Return value:  Size  Location     Type
  7318 ;;                  1    wreg      void 
  7319 ;; Registers used:
  7320 ;;		wreg, fsr2l, fsr2h, status,2, status,0, prodl, prodh, cstack
  7321 ;; Tracked objects:
  7322 ;;		On entry : 0/0
  7323 ;;		On exit  : 0/0
  7324 ;;		Unchanged: 0/0
  7325 ;; Data sizes:     COMRAM   BANK0   BANK1   BANK2   BANK3   BANK4   BANK5   BANK6   BANK7   BANK8   BANK9  BANK10  BANK1
      +1  BANK12  BANK13  BANK14
  7326 ;;      Params:         1       0       0       0       0       0       0       0       0       0       0       0       
      +0       0       0       0
  7327 ;;      Locals:         3       0       0       0       0       0       0       0       0       0       0       0       
      +0       0       0       0
  7328 ;;      Temps:          0       0       0       0       0       0       0       0       0       0       0       0       
      +0       0       0       0
  7329 ;;      Totals:         4       0       0       0       0       0       0       0       0       0       0       0       
      +0       0       0       0
  7330 ;;Total ram usage:        4 bytes
  7331 ;; Hardware stack levels used:    1
  7332 ;; Hardware stack levels required when called:    1
  7333 ;; This function calls:
  7334 ;;		_USBConfigureEndpoint
  7335 ;; This function is called by:
  7336 ;;		_CDCInitEP
  7337 ;; This function uses a non-reentrant model
  7338 ;;
  7339                           
  7340                           	psect	text39
  7341  002C12                     __ptext39:
  7342                           	opt callstack 0
  7343  002C12                     _USBEnableEndpoint:
  7344                           	opt callstack 22
  7345                           
  7346                           ;incstack = 0
  7347                           ;USBEnableEndpoint@ep stored from wreg
  7348  002C12  6E0C               	movwf	USBEnableEndpoint@ep,c
  7349                           
  7350                           ;../../../../../../framework/usb/src/usb_device.c: 882: void USBEnableEndpoint(uint8_t e
      +                          p, uint8_t options);../../../../../../framework/usb/src/usb_device.c: 883: {;../../../..
      +                          /../../framework/usb/src/usb_device.c: 884:     unsigned char* p;;../../../../../../fram
      +                          ework/usb/src/usb_device.c: 888:     if(options & 0x04)
  7351  002C14  A409               	btfss	USBEnableEndpoint@options,2,c
  7352  002C16  D005               	goto	i2l3403
  7353                           
  7354                           ;../../../../../../framework/usb/src/usb_device.c: 889:     {;../../../../../../framewor
      +                          k/usb/src/usb_device.c: 890:         USBConfigureEndpoint(ep, 0);
  7355  002C18  0E00               	movlw	0
  7356  002C1A  6E01               	movwf	USBConfigureEndpoint@direction,c
  7357  002C1C  500C               	movf	USBEnableEndpoint@ep,w,c
  7358  002C1E  EC8A  F013         	call	_USBConfigureEndpoint
  7359  002C22                     i2l3403:
  7360                           
  7361                           ;../../../../../../framework/usb/src/usb_device.c: 892:     if(options & 0x02)
  7362  002C22  A209               	btfss	USBEnableEndpoint@options,1,c
  7363  002C24  D005               	goto	i2l3407
  7364                           
  7365                           ;../../../../../../framework/usb/src/usb_device.c: 893:     {;../../../../../../framewor
      +                          k/usb/src/usb_device.c: 894:         USBConfigureEndpoint(ep, 1);
  7366  002C26  0E01               	movlw	1
  7367  002C28  6E01               	movwf	USBConfigureEndpoint@direction,c
  7368  002C2A  500C               	movf	USBEnableEndpoint@ep,w,c
  7369  002C2C  EC8A  F013         	call	_USBConfigureEndpoint
  7370  002C30                     i2l3407:
  7371                           
  7372                           ;../../../../../../framework/usb/src/usb_device.c: 903:         p = (unsigned char*)(&UE
      +                          P0+ep);
  7373  002C30  0E26               	movlw	38
  7374  002C32  240C               	addwf	USBEnableEndpoint@ep,w,c
  7375  002C34  6E0A               	movwf	USBEnableEndpoint@p,c
  7376  002C36  6A0B               	clrf	USBEnableEndpoint@p+1,c
  7377  002C38  0E0F               	movlw	15
  7378  002C3A  220B               	addwfc	USBEnableEndpoint@p+1,f,c
  7379                           
  7380                           ;../../../../../../framework/usb/src/usb_device.c: 905:     *p = options;
  7381  002C3C  C00A  FFD9         	movff	USBEnableEndpoint@p,fsr2l
  7382  002C40  C00B  FFDA         	movff	USBEnableEndpoint@p+1,fsr2h
  7383  002C44  C009  FFDF         	movff	USBEnableEndpoint@options,indf2
  7384  002C48  0012               	return		;funcret
  7385  002C4A                     __end_of_USBEnableEndpoint:
  7386                           	opt callstack 0
  7387                           
  7388 ;; *************** function _USBConfigureEndpoint *****************
  7389 ;; Defined at:
  7390 ;;		line 1547 in file "../../../../../../framework/usb/src/usb_device.c"
  7391 ;; Parameters:    Size  Location     Type
  7392 ;;  EPNum           1    wreg     unsigned char 
  7393 ;;  direction       1    0[COMRAM] unsigned char 
  7394 ;; Auto vars:     Size  Location     Type
  7395 ;;  EPNum           1    5[COMRAM] unsigned char 
  7396 ;;  handle          2    6[COMRAM] PTR volatile struct __BD
  7397 ;;		 -> BDT(48), 
  7398 ;; Return value:  Size  Location     Type
  7399 ;;                  1    wreg      void 
  7400 ;; Registers used:
  7401 ;;		wreg, fsr2l, fsr2h, status,2, status,0, prodl, prodh
  7402 ;; Tracked objects:
  7403 ;;		On entry : 0/0
  7404 ;;		On exit  : 0/0
  7405 ;;		Unchanged: 0/0
  7406 ;; Data sizes:     COMRAM   BANK0   BANK1   BANK2   BANK3   BANK4   BANK5   BANK6   BANK7   BANK8   BANK9  BANK10  BANK1
      +1  BANK12  BANK13  BANK14
  7407 ;;      Params:         1       0       0       0       0       0       0       0       0       0       0       0       
      +0       0       0       0
  7408 ;;      Locals:         3       0       0       0       0       0       0       0       0       0       0       0       
      +0       0       0       0
  7409 ;;      Temps:          4       0       0       0       0       0       0       0       0       0       0       0       
      +0       0       0       0
  7410 ;;      Totals:         8       0       0       0       0       0       0       0       0       0       0       0       
      +0       0       0       0
  7411 ;;Total ram usage:        8 bytes
  7412 ;; Hardware stack levels used:    1
  7413 ;; This function calls:
  7414 ;;		Nothing
  7415 ;; This function is called by:
  7416 ;;		_USBEnableEndpoint
  7417 ;; This function uses a non-reentrant model
  7418 ;;
  7419                           
  7420                           	psect	text40
  7421  002714                     __ptext40:
  7422                           	opt callstack 0
  7423  002714                     _USBConfigureEndpoint:
  7424                           	opt callstack 22
  7425                           
  7426                           ;incstack = 0
  7427                           ;USBConfigureEndpoint@EPNum stored from wreg
  7428  002714  6E06               	movwf	USBConfigureEndpoint@EPNum,c
  7429                           
  7430                           ;../../../../../../framework/usb/src/usb_device.c: 1547: static void USBConfigureEndpoin
      +                          t(uint8_t EPNum, uint8_t direction);../../../../../../framework/usb/src/usb_device.c: 15
      +                          48: {;../../../../../../framework/usb/src/usb_device.c: 1549:     volatile BDT_ENTRY* ha
      +                          ndle;;../../../../../../framework/usb/src/usb_device.c: 1553:     handle = (volatile BDT
      +                          _ENTRY*)&BDT[0];
  7431  002716  0E00               	movlw	0
  7432  002718  6E07               	movwf	USBConfigureEndpoint@handle,c
  7433  00271A  0E04               	movlw	4
  7434  00271C  6E08               	movwf	USBConfigureEndpoint@handle+1,c
  7435                           
  7436                           ;../../../../../../framework/usb/src/usb_device.c: 1554:     handle += (4*EPNum+2*direct
      +                          ion+0u);
  7437  00271E  5001               	movf	USBConfigureEndpoint@direction,w,c
  7438  002720  6E02               	movwf	??_USBConfigureEndpoint& (0+255),c
  7439  002722  6A03               	clrf	(??_USBConfigureEndpoint+1)& (0+255),c
  7440  002724  90D8               	bcf	status,0,c
  7441  002726  3602               	rlcf	??_USBConfigureEndpoint,f,c
  7442  002728  3603               	rlcf	??_USBConfigureEndpoint+1,f,c
  7443  00272A  5006               	movf	USBConfigureEndpoint@EPNum,w,c
  7444  00272C  6E04               	movwf	(??_USBConfigureEndpoint+2)& (0+255),c
  7445  00272E  6A05               	clrf	(??_USBConfigureEndpoint+3)& (0+255),c
  7446  002730  90D8               	bcf	status,0,c
  7447  002732  3604               	rlcf	??_USBConfigureEndpoint+2,f,c
  7448  002734  3605               	rlcf	??_USBConfigureEndpoint+3,f,c
  7449  002736  90D8               	bcf	status,0,c
  7450  002738  3604               	rlcf	??_USBConfigureEndpoint+2,f,c
  7451  00273A  3605               	rlcf	??_USBConfigureEndpoint+3,f,c
  7452  00273C  5002               	movf	??_USBConfigureEndpoint,w,c
  7453  00273E  2604               	addwf	??_USBConfigureEndpoint+2,f,c
  7454  002740  5003               	movf	??_USBConfigureEndpoint+1,w,c
  7455  002742  2205               	addwfc	??_USBConfigureEndpoint+3,f,c
  7456  002744  90D8               	bcf	status,0,c
  7457  002746  3604               	rlcf	??_USBConfigureEndpoint+2,f,c
  7458  002748  3605               	rlcf	??_USBConfigureEndpoint+3,f,c
  7459  00274A  90D8               	bcf	status,0,c
  7460  00274C  3604               	rlcf	??_USBConfigureEndpoint+2,f,c
  7461  00274E  3605               	rlcf	??_USBConfigureEndpoint+3,f,c
  7462  002750  5004               	movf	??_USBConfigureEndpoint+2,w,c
  7463  002752  2607               	addwf	USBConfigureEndpoint@handle,f,c
  7464  002754  5005               	movf	??_USBConfigureEndpoint+3,w,c
  7465  002756  2208               	addwfc	USBConfigureEndpoint@handle+1,f,c
  7466                           
  7467                           ;../../../../../../framework/usb/src/usb_device.c: 1556:     handle->STAT.UOWN = 0;
  7468  002758  C007  FFD9         	movff	USBConfigureEndpoint@handle,fsr2l
  7469  00275C  C008  FFDA         	movff	USBConfigureEndpoint@handle+1,fsr2h
  7470  002760  9EDF               	bcf	indf2,7,c
  7471                           
  7472                           ;../../../../../../framework/usb/src/usb_device.c: 1561:     if(direction == 0)
  7473  002762  5001               	movf	USBConfigureEndpoint@direction,w,c
  7474  002764  A4D8               	btfss	status,2,c
  7475  002766  D007               	goto	i2l3373
  7476                           
  7477                           ;../../../../../../framework/usb/src/usb_device.c: 1562:     {;../../../../../../framewo
      +                          rk/usb/src/usb_device.c: 1563:         pBDTEntryOut[EPNum] = handle;
  7478  002768  5006               	movf	USBConfigureEndpoint@EPNum,w,c
  7479  00276A  0D02               	mullw	2
  7480  00276C  0E7E               	movlw	low _pBDTEntryOut
  7481  00276E  24F3               	addwf	prodl,w,c
  7482  002770  6ED9               	movwf	fsr2l,c
  7483  002772  0E00               	movlw	high _pBDTEntryOut
  7484  002774  D006               	goto	L15
  7485  002776                     i2l3373:
  7486                           
  7487                           ;../../../../../../framework/usb/src/usb_device.c: 1566:     {;../../../../../../framewo
      +                          rk/usb/src/usb_device.c: 1567:         pBDTEntryIn[EPNum] = handle;
  7488  002776  5006               	movf	USBConfigureEndpoint@EPNum,w,c
  7489  002778  0D02               	mullw	2
  7490  00277A  0E78               	movlw	low _pBDTEntryIn
  7491  00277C  24F3               	addwf	prodl,w,c
  7492  00277E  6ED9               	movwf	fsr2l,c
  7493  002780  0E00               	movlw	high _pBDTEntryIn
  7494  002782                     L15:
  7495  002782  20F4               	addwfc	prodh,w,c
  7496  002784  6EDA               	movwf	fsr2h,c
  7497  002786  C007  FFDE         	movff	USBConfigureEndpoint@handle,postinc2
  7498  00278A  C008  FFDD         	movff	USBConfigureEndpoint@handle+1,postdec2
  7499                           
  7500                           ;../../../../../../framework/usb/src/usb_device.c: 1571:         handle->STAT.DTS = 0;
  7501  00278E  C007  FFD9         	movff	USBConfigureEndpoint@handle,fsr2l
  7502  002792  C008  FFDA         	movff	USBConfigureEndpoint@handle+1,fsr2h
  7503  002796  9CDF               	bcf	indf2,6,c
  7504                           
  7505                           ;../../../../../../framework/usb/src/usb_device.c: 1572:         (handle+1)->STAT.DTS = 
      +                          1;
  7506  002798  EE20 F004          	lfsr	2,4
  7507  00279C  5007               	movf	USBConfigureEndpoint@handle,w,c
  7508  00279E  26D9               	addwf	fsr2l,f,c
  7509  0027A0  5008               	movf	USBConfigureEndpoint@handle+1,w,c
  7510  0027A2  22DA               	addwfc	fsr2h,f,c
  7511  0027A4  8CDF               	bsf	indf2,6,c
  7512  0027A6  0012               	return		;funcret
  7513  0027A8                     __end_of_USBConfigureEndpoint:
  7514                           	opt callstack 0
  7515                           
  7516 ;; *************** function _APP_LEDUpdateUSBStatus *****************
  7517 ;; Defined at:
  7518 ;;		line 50 in file "../demo_src/app_led_usb_status.c"
  7519 ;; Parameters:    Size  Location     Type
  7520 ;;		None
  7521 ;; Auto vars:     Size  Location     Type
  7522 ;;		None
  7523 ;; Return value:  Size  Location     Type
  7524 ;;                  1    wreg      void 
  7525 ;; Registers used:
  7526 ;;		wreg, status,2, status,0, cstack
  7527 ;; Tracked objects:
  7528 ;;		On entry : 0/0
  7529 ;;		On exit  : 0/0
  7530 ;;		Unchanged: 0/0
  7531 ;; Data sizes:     COMRAM   BANK0   BANK1   BANK2   BANK3   BANK4   BANK5   BANK6   BANK7   BANK8   BANK9  BANK10  BANK1
      +1  BANK12  BANK13  BANK14
  7532 ;;      Params:         0       0       0       0       0       0       0       0       0       0       0       0       
      +0       0       0       0
  7533 ;;      Locals:         0       0       0       0       0       0       0       0       0       0       0       0       
      +0       0       0       0
  7534 ;;      Temps:          2       0       0       0       0       0       0       0       0       0       0       0       
      +0       0       0       0
  7535 ;;      Totals:         2       0       0       0       0       0       0       0       0       0       0       0       
      +0       0       0       0
  7536 ;;Total ram usage:        2 bytes
  7537 ;; Hardware stack levels used:    1
  7538 ;; Hardware stack levels required when called:    1
  7539 ;; This function calls:
  7540 ;;		_LED_Off
  7541 ;;		_LED_On
  7542 ;; This function is called by:
  7543 ;;		_USER_USB_CALLBACK_EVENT_HANDLER
  7544 ;; This function uses a non-reentrant model
  7545 ;;
  7546                           
  7547                           	psect	text41
  7548  0027A8                     __ptext41:
  7549                           	opt callstack 0
  7550  0027A8                     _APP_LEDUpdateUSBStatus:
  7551                           	opt callstack 23
  7552                           
  7553                           ;../demo_src/app_led_usb_status.c: 52:     static uint16_t ledCount = 0;;../demo_src/app
      +                          _led_usb_status.c: 54:     if(UCONbits.SUSPND == 1)
  7554                           
  7555                           ;incstack = 0
  7556  0027A8  A265               	btfss	3941,1,c	;volatile
  7557  0027AA  D038               	goto	i2l3551
  7558                           
  7559                           ;../demo_src/app_led_usb_status.c: 55:     {;../demo_src/app_led_usb_status.c: 56:      
      +                             LED_Off(LED_D1);
  7560  0027AC  0E01               	movlw	1
  7561  0027AE  ECBD  F016         	call	_LED_Off
  7562  0027B2  0012               	return	
  7563  0027B4                     i2l3525:
  7564                           
  7565                           ;../demo_src/app_led_usb_status.c: 65:             if(ledCount == 1)
  7566  0027B4  042E               	decf	APP_LEDUpdateUSBStatus@ledCount,w,c
  7567  0027B6  102F               	iorwf	APP_LEDUpdateUSBStatus@ledCount+1,w,c
  7568  0027B8  A4D8               	btfss	status,2,c
  7569  0027BA  D004               	goto	i2l3529
  7570                           
  7571                           ;../demo_src/app_led_usb_status.c: 66:             {;../demo_src/app_led_usb_status.c: 6
      +                          7:                 LED_On(LED_D1);
  7572  0027BC  0E01               	movlw	1
  7573  0027BE  ECA5  F016         	call	_LED_On
  7574                           
  7575                           ;../demo_src/app_led_usb_status.c: 68:             }
  7576  0027C2  D038               	goto	i2l3553
  7577  0027C4                     i2l3529:
  7578  0027C4  0E4B               	movlw	75
  7579  0027C6  182E               	xorwf	APP_LEDUpdateUSBStatus@ledCount,w,c
  7580  0027C8  102F               	iorwf	APP_LEDUpdateUSBStatus@ledCount+1,w,c
  7581  0027CA  A4D8               	btfss	status,2,c
  7582  0027CC  D004               	goto	i2l3533
  7583                           
  7584                           ;../demo_src/app_led_usb_status.c: 70:             {;../demo_src/app_led_usb_status.c: 7
      +                          1:                 LED_Off(LED_D1);
  7585  0027CE  0E01               	movlw	1
  7586  0027D0  ECBD  F016         	call	_LED_Off
  7587                           
  7588                           ;../demo_src/app_led_usb_status.c: 72:             }
  7589  0027D4  D02F               	goto	i2l3553
  7590  0027D6                     i2l3533:
  7591  0027D6  502F               	movf	APP_LEDUpdateUSBStatus@ledCount+1,w,c
  7592  0027D8  E104               	bnz	i2u194_40
  7593  0027DA  0E97               	movlw	151
  7594  0027DC  5C2E               	subwf	APP_LEDUpdateUSBStatus@ledCount,w,c
  7595  0027DE  A0D8               	btfss	status,0,c
  7596  0027E0  D029               	goto	i2l3553
  7597  0027E2                     i2u194_40:
  7598                           
  7599                           ;../demo_src/app_led_usb_status.c: 74:             {;../demo_src/app_led_usb_status.c: 7
      +                          5:                 ledCount = 0;
  7600  0027E2  0E00               	movlw	0
  7601  0027E4  6E2F               	movwf	APP_LEDUpdateUSBStatus@ledCount+1,c
  7602  0027E6  0E00               	movlw	0
  7603  0027E8  6E2E               	movwf	APP_LEDUpdateUSBStatus@ledCount,c
  7604                           
  7605                           ;../demo_src/app_led_usb_status.c: 77:             break;
  7606  0027EA  D024               	goto	i2l3553
  7607  0027EC                     i2l3537:
  7608                           
  7609                           ;../demo_src/app_led_usb_status.c: 82:             if(ledCount == 1)
  7610  0027EC  042E               	decf	APP_LEDUpdateUSBStatus@ledCount,w,c
  7611  0027EE  102F               	iorwf	APP_LEDUpdateUSBStatus@ledCount+1,w,c
  7612  0027F0  A4D8               	btfss	status,2,c
  7613  0027F2  D004               	goto	i2l3541
  7614                           
  7615                           ;../demo_src/app_led_usb_status.c: 83:             {;../demo_src/app_led_usb_status.c: 8
      +                          4:                 LED_On(LED_D1);
  7616  0027F4  0E01               	movlw	1
  7617  0027F6  ECA5  F016         	call	_LED_On
  7618                           
  7619                           ;../demo_src/app_led_usb_status.c: 85:             }
  7620  0027FA  D01C               	goto	i2l3553
  7621  0027FC                     i2l3541:
  7622  0027FC  0E32               	movlw	50
  7623  0027FE  182E               	xorwf	APP_LEDUpdateUSBStatus@ledCount,w,c
  7624  002800  102F               	iorwf	APP_LEDUpdateUSBStatus@ledCount+1,w,c
  7625  002802  A4D8               	btfss	status,2,c
  7626  002804  D004               	goto	i2l3545
  7627                           
  7628                           ;../demo_src/app_led_usb_status.c: 87:             {;../demo_src/app_led_usb_status.c: 8
      +                          8:                 LED_Off(LED_D1);
  7629  002806  0E01               	movlw	1
  7630  002808  ECBD  F016         	call	_LED_Off
  7631                           
  7632                           ;../demo_src/app_led_usb_status.c: 89:             }
  7633  00280C  D013               	goto	i2l3553
  7634  00280E                     i2l3545:
  7635  00280E  0EB7               	movlw	183
  7636  002810  5C2E               	subwf	APP_LEDUpdateUSBStatus@ledCount,w,c
  7637  002812  0E03               	movlw	3
  7638  002814  582F               	subwfb	APP_LEDUpdateUSBStatus@ledCount+1,w,c
  7639  002816  B0D8               	btfsc	status,0,c
  7640  002818  D7E4               	goto	i2u194_40
  7641  00281A  D00C               	goto	i2l3553
  7642  00281C                     i2l3551:
  7643  00281C  5045               	movf	_USBDeviceState,w,c	;volatile
  7644  00281E  6E04               	movwf	??_APP_LEDUpdateUSBStatus& (0+255),c
  7645  002820  6A05               	clrf	(??_APP_LEDUpdateUSBStatus+1)& (0+255),c
  7646                           
  7647                           ; Switch on 2 bytes has been partitioned into a top level switch of size 1, and 1 sub-sw
      +                          itches
  7648                           ; Switch size 1, requested type "simple"
  7649                           ; Number of cases is 1, Range of values is 0 to 0
  7650                           ; switch strategies available:
  7651                           ; Name         Instructions Cycles
  7652                           ; simple_byte            4     3 (average)
  7653                           ;	Chosen strategy is simple_byte
  7654  002822  5005               	movf	??_APP_LEDUpdateUSBStatus+1,w,c
  7655  002824  0A00               	xorlw	0	; case 0
  7656  002826  A4D8               	btfss	status,2,c
  7657  002828  D7E1               	goto	i2l3537
  7658                           
  7659                           ; Switch size 1, requested type "simple"
  7660                           ; Number of cases is 1, Range of values is 32 to 32
  7661                           ; switch strategies available:
  7662                           ; Name         Instructions Cycles
  7663                           ; simple_byte            4     3 (average)
  7664                           ;	Chosen strategy is simple_byte
  7665  00282A  5004               	movf	??_APP_LEDUpdateUSBStatus,w,c
  7666  00282C  0A20               	xorlw	32	; case 32
  7667  00282E  B4D8               	btfsc	status,2,c
  7668  002830  D7C1               	goto	i2l3525
  7669  002832  D7DC               	goto	i2l3537
  7670  002834                     i2l3553:
  7671                           
  7672                           ;../demo_src/app_led_usb_status.c: 98:     ledCount++;
  7673  002834  4A2E               	infsnz	APP_LEDUpdateUSBStatus@ledCount,f,c
  7674  002836  2A2F               	incf	APP_LEDUpdateUSBStatus@ledCount+1,f,c
  7675  002838  0012               	return		;funcret
  7676  00283A                     __end_of_APP_LEDUpdateUSBStatus:
  7677                           	opt callstack 0
  7678                           
  7679 ;; *************** function _LED_On *****************
  7680 ;; Defined at:
  7681 ;;		line 55 in file "../../../../../../bsp/pic18f46j50_pim/leds.c"
  7682 ;; Parameters:    Size  Location     Type
  7683 ;;  led             1    wreg     enum E2
  7684 ;; Auto vars:     Size  Location     Type
  7685 ;;  led             1    2[COMRAM] enum E2
  7686 ;; Return value:  Size  Location     Type
  7687 ;;                  1    wreg      void 
  7688 ;; Registers used:
  7689 ;;		wreg, status,2, status,0
  7690 ;; Tracked objects:
  7691 ;;		On entry : 0/0
  7692 ;;		On exit  : 0/0
  7693 ;;		Unchanged: 0/0
  7694 ;; Data sizes:     COMRAM   BANK0   BANK1   BANK2   BANK3   BANK4   BANK5   BANK6   BANK7   BANK8   BANK9  BANK10  BANK1
      +1  BANK12  BANK13  BANK14
  7695 ;;      Params:         0       0       0       0       0       0       0       0       0       0       0       0       
      +0       0       0       0
  7696 ;;      Locals:         1       0       0       0       0       0       0       0       0       0       0       0       
      +0       0       0       0
  7697 ;;      Temps:          2       0       0       0       0       0       0       0       0       0       0       0       
      +0       0       0       0
  7698 ;;      Totals:         3       0       0       0       0       0       0       0       0       0       0       0       
      +0       0       0       0
  7699 ;;Total ram usage:        3 bytes
  7700 ;; Hardware stack levels used:    1
  7701 ;; This function calls:
  7702 ;;		Nothing
  7703 ;; This function is called by:
  7704 ;;		_APP_LEDUpdateUSBStatus
  7705 ;; This function uses a non-reentrant model
  7706 ;;
  7707                           
  7708                           	psect	text42
  7709  002D4A                     __ptext42:
  7710                           	opt callstack 0
  7711  002D4A                     _LED_On:
  7712                           	opt callstack 23
  7713                           
  7714                           ;incstack = 0
  7715                           ;LED_On@led stored from wreg
  7716  002D4A  6E03               	movwf	LED_On@led,c
  7717                           
  7718                           ;../../../../../../bsp/pic18f46j50_pim/leds.c: 55: void LED_On(LED led);../../../../../.
      +                          ./bsp/pic18f46j50_pim/leds.c: 56: {;../../../../../../bsp/pic18f46j50_pim/leds.c: 57:   
      +                            switch(led)
  7719  002D4C  D004               	goto	i2l3383
  7720  002D4E                     i2l28:
  7721                           
  7722                           ;../../../../../../bsp/pic18f46j50_pim/leds.c: 60:             LATEbits.LATE0 = 1;
  7723  002D4E  808D               	bsf	3981,0,c	;volatile
  7724                           
  7725                           ;../../../../../../bsp/pic18f46j50_pim/leds.c: 61:             break;
  7726  002D50  0012               	return	
  7727  002D52                     i2l30:
  7728                           
  7729                           ;../../../../../../bsp/pic18f46j50_pim/leds.c: 64:             LATEbits.LATE1 = 1;
  7730  002D52  828D               	bsf	3981,1,c	;volatile
  7731                           
  7732                           ;../../../../../../bsp/pic18f46j50_pim/leds.c: 65:             break;
  7733  002D54  0012               	return	
  7734  002D56                     i2l3383:
  7735  002D56  5003               	movf	LED_On@led,w,c
  7736  002D58  6E01               	movwf	??_LED_On& (0+255),c
  7737  002D5A  6A02               	clrf	(??_LED_On+1)& (0+255),c
  7738                           
  7739                           ; Switch on 2 bytes has been partitioned into a top level switch of size 1, and 1 sub-sw
      +                          itches
  7740                           ; Switch size 1, requested type "simple"
  7741                           ; Number of cases is 1, Range of values is 0 to 0
  7742                           ; switch strategies available:
  7743                           ; Name         Instructions Cycles
  7744                           ; simple_byte            4     3 (average)
  7745                           ;	Chosen strategy is simple_byte
  7746  002D5C  5002               	movf	??_LED_On+1,w,c
  7747  002D5E  0A00               	xorlw	0	; case 0
  7748  002D60  A4D8               	btfss	status,2,c
  7749  002D62  0012               	return	
  7750                           
  7751                           ; Switch size 1, requested type "simple"
  7752                           ; Number of cases is 3, Range of values is 0 to 2
  7753                           ; switch strategies available:
  7754                           ; Name         Instructions Cycles
  7755                           ; simple_byte           10     6 (average)
  7756                           ;	Chosen strategy is simple_byte
  7757  002D64  5001               	movf	??_LED_On,w,c
  7758  002D66  0A00               	xorlw	0	; case 0
  7759  002D68  B4D8               	btfsc	status,2,c
  7760  002D6A  0012               	return	
  7761  002D6C  0A01               	xorlw	1	; case 1
  7762  002D6E  B4D8               	btfsc	status,2,c
  7763  002D70  D7EE               	goto	i2l28
  7764  002D72  0A03               	xorlw	3	; case 2
  7765  002D74  A4D8               	btfss	status,2,c
  7766  002D76  0012               	return	
  7767  002D78  D7EC               	goto	i2l30
  7768  002D7A                     __end_of_LED_On:
  7769                           	opt callstack 0
  7770                           
  7771 ;; *************** function _LED_Off *****************
  7772 ;; Defined at:
  7773 ;;		line 88 in file "../../../../../../bsp/pic18f46j50_pim/leds.c"
  7774 ;; Parameters:    Size  Location     Type
  7775 ;;  led             1    wreg     enum E2
  7776 ;; Auto vars:     Size  Location     Type
  7777 ;;  led             1    2[COMRAM] enum E2
  7778 ;; Return value:  Size  Location     Type
  7779 ;;                  1    wreg      void 
  7780 ;; Registers used:
  7781 ;;		wreg, status,2, status,0
  7782 ;; Tracked objects:
  7783 ;;		On entry : 0/0
  7784 ;;		On exit  : 0/0
  7785 ;;		Unchanged: 0/0
  7786 ;; Data sizes:     COMRAM   BANK0   BANK1   BANK2   BANK3   BANK4   BANK5   BANK6   BANK7   BANK8   BANK9  BANK10  BANK1
      +1  BANK12  BANK13  BANK14
  7787 ;;      Params:         0       0       0       0       0       0       0       0       0       0       0       0       
      +0       0       0       0
  7788 ;;      Locals:         1       0       0       0       0       0       0       0       0       0       0       0       
      +0       0       0       0
  7789 ;;      Temps:          2       0       0       0       0       0       0       0       0       0       0       0       
      +0       0       0       0
  7790 ;;      Totals:         3       0       0       0       0       0       0       0       0       0       0       0       
      +0       0       0       0
  7791 ;;Total ram usage:        3 bytes
  7792 ;; Hardware stack levels used:    1
  7793 ;; This function calls:
  7794 ;;		Nothing
  7795 ;; This function is called by:
  7796 ;;		_APP_LEDUpdateUSBStatus
  7797 ;; This function uses a non-reentrant model
  7798 ;;
  7799                           
  7800                           	psect	text43
  7801  002D7A                     __ptext43:
  7802                           	opt callstack 0
  7803  002D7A                     _LED_Off:
  7804                           	opt callstack 23
  7805                           
  7806                           ;incstack = 0
  7807                           ;LED_Off@led stored from wreg
  7808  002D7A  6E03               	movwf	LED_Off@led,c
  7809                           
  7810                           ;../../../../../../bsp/pic18f46j50_pim/leds.c: 88: void LED_Off(LED led);../../../../../
      +                          ../bsp/pic18f46j50_pim/leds.c: 89: {;../../../../../../bsp/pic18f46j50_pim/leds.c: 90:  
      +                             switch(led)
  7811  002D7C  D004               	goto	i2l3393
  7812  002D7E                     i2l36:
  7813                           
  7814                           ;../../../../../../bsp/pic18f46j50_pim/leds.c: 93:             LATEbits.LATE0 = 0;
  7815  002D7E  908D               	bcf	3981,0,c	;volatile
  7816                           
  7817                           ;../../../../../../bsp/pic18f46j50_pim/leds.c: 94:             break;
  7818  002D80  0012               	return	
  7819  002D82                     i2l38:
  7820                           
  7821                           ;../../../../../../bsp/pic18f46j50_pim/leds.c: 97:             LATEbits.LATE1 = 0;
  7822  002D82  928D               	bcf	3981,1,c	;volatile
  7823                           
  7824                           ;../../../../../../bsp/pic18f46j50_pim/leds.c: 98:             break;
  7825  002D84  0012               	return	
  7826  002D86                     i2l3393:
  7827  002D86  5003               	movf	LED_Off@led,w,c
  7828  002D88  6E01               	movwf	??_LED_Off& (0+255),c
  7829  002D8A  6A02               	clrf	(??_LED_Off+1)& (0+255),c
  7830                           
  7831                           ; Switch on 2 bytes has been partitioned into a top level switch of size 1, and 1 sub-sw
      +                          itches
  7832                           ; Switch size 1, requested type "simple"
  7833                           ; Number of cases is 1, Range of values is 0 to 0
  7834                           ; switch strategies available:
  7835                           ; Name         Instructions Cycles
  7836                           ; simple_byte            4     3 (average)
  7837                           ;	Chosen strategy is simple_byte
  7838  002D8C  5002               	movf	??_LED_Off+1,w,c
  7839  002D8E  0A00               	xorlw	0	; case 0
  7840  002D90  A4D8               	btfss	status,2,c
  7841  002D92  0012               	return	
  7842                           
  7843                           ; Switch size 1, requested type "simple"
  7844                           ; Number of cases is 3, Range of values is 0 to 2
  7845                           ; switch strategies available:
  7846                           ; Name         Instructions Cycles
  7847                           ; simple_byte           10     6 (average)
  7848                           ;	Chosen strategy is simple_byte
  7849  002D94  5001               	movf	??_LED_Off,w,c
  7850  002D96  0A00               	xorlw	0	; case 0
  7851  002D98  B4D8               	btfsc	status,2,c
  7852  002D9A  0012               	return	
  7853  002D9C  0A01               	xorlw	1	; case 1
  7854  002D9E  B4D8               	btfsc	status,2,c
  7855  002DA0  D7EE               	goto	i2l36
  7856  002DA2  0A03               	xorlw	3	; case 2
  7857  002DA4  A4D8               	btfss	status,2,c
  7858  002DA6  0012               	return	
  7859  002DA8  D7EC               	goto	i2l38
  7860  002DAA                     __end_of_LED_Off:
  7861                           	opt callstack 0
  7862                           
  7863 ;; *************** function _APP_DeviceCDCBasicDemoInitialize *****************
  7864 ;; Defined at:
  7865 ;;		line 52 in file "../demo_src/app_device_cdc_basic.c"
  7866 ;; Parameters:    Size  Location     Type
  7867 ;;		None
  7868 ;; Auto vars:     Size  Location     Type
  7869 ;;		None
  7870 ;; Return value:  Size  Location     Type
  7871 ;;                  1    wreg      void 
  7872 ;; Registers used:
  7873 ;;		wreg, status,2
  7874 ;; Tracked objects:
  7875 ;;		On entry : 0/0
  7876 ;;		On exit  : 0/0
  7877 ;;		Unchanged: 0/0
  7878 ;; Data sizes:     COMRAM   BANK0   BANK1   BANK2   BANK3   BANK4   BANK5   BANK6   BANK7   BANK8   BANK9  BANK10  BANK1
      +1  BANK12  BANK13  BANK14
  7879 ;;      Params:         0       0       0       0       0       0       0       0       0       0       0       0       
      +0       0       0       0
  7880 ;;      Locals:         0       0       0       0       0       0       0       0       0       0       0       0       
      +0       0       0       0
  7881 ;;      Temps:          0       0       0       0       0       0       0       0       0       0       0       0       
      +0       0       0       0
  7882 ;;      Totals:         0       0       0       0       0       0       0       0       0       0       0       0       
      +0       0       0       0
  7883 ;;Total ram usage:        0 bytes
  7884 ;; Hardware stack levels used:    1
  7885 ;; This function calls:
  7886 ;;		Nothing
  7887 ;; This function is called by:
  7888 ;;		_USER_USB_CALLBACK_EVENT_HANDLER
  7889 ;; This function uses a non-reentrant model
  7890 ;;
  7891                           
  7892                           	psect	text44
  7893  002E30                     __ptext44:
  7894                           	opt callstack 0
  7895  002E30                     _APP_DeviceCDCBasicDemoInitialize:
  7896                           	opt callstack 24
  7897                           
  7898                           ;../demo_src/app_device_cdc_basic.c: 54:     line_coding.bCharFormat = 0;
  7899                           
  7900                           ;incstack = 0
  7901  002E30  0E00               	movlw	0
  7902  002E32  6E4A               	movwf	_line_coding+4,c
  7903                           
  7904                           ;../demo_src/app_device_cdc_basic.c: 55:     line_coding.bDataBits = 8;
  7905  002E34  0E08               	movlw	8
  7906  002E36  6E4C               	movwf	_line_coding+6,c
  7907                           
  7908                           ;../demo_src/app_device_cdc_basic.c: 56:     line_coding.bParityType = 0;
  7909  002E38  0E00               	movlw	0
  7910  002E3A  6E4B               	movwf	_line_coding+5,c
  7911                           
  7912                           ;../demo_src/app_device_cdc_basic.c: 57:     line_coding.dwDTERate = 9600;
  7913  002E3C  0E80               	movlw	128
  7914  002E3E  6E46               	movwf	_line_coding,c
  7915  002E40  0E25               	movlw	37
  7916  002E42  6E47               	movwf	_line_coding+1,c
  7917  002E44  0E00               	movlw	0
  7918  002E46  6E48               	movwf	_line_coding+2,c
  7919  002E48  0E00               	movlw	0
  7920  002E4A  6E49               	movwf	_line_coding+3,c
  7921                           
  7922                           ;../demo_src/app_device_cdc_basic.c: 59:     buttonPressed = 0;
  7923  002E4C  0E00               	movlw	0
  7924  002E4E  0100               	movlb	0	; () banked
  7925  002E50  6F98               	movwf	_buttonPressed& (0+255),b
  7926                           
  7927                           ; BSR set to: 0
  7928  002E52  0012               	return		;funcret
  7929  002E54                     __end_of_APP_DeviceCDCBasicDemoInitialize:
  7930                           	opt callstack 0
  7931                           
  7932 ;; *************** function _USBCtrlTrfOutHandler *****************
  7933 ;; Defined at:
  7934 ;;		line 2545 in file "../../../../../../framework/usb/src/usb_device.c"
  7935 ;; Parameters:    Size  Location     Type
  7936 ;;		None
  7937 ;; Auto vars:     Size  Location     Type
  7938 ;;		None
  7939 ;; Return value:  Size  Location     Type
  7940 ;;                  1    wreg      void 
  7941 ;; Registers used:
  7942 ;;		wreg, fsr1l, fsr1h, fsr2l, fsr2h, status,2, status,0, cstack
  7943 ;; Tracked objects:
  7944 ;;		On entry : 0/0
  7945 ;;		On exit  : 0/0
  7946 ;;		Unchanged: 0/0
  7947 ;; Data sizes:     COMRAM   BANK0   BANK1   BANK2   BANK3   BANK4   BANK5   BANK6   BANK7   BANK8   BANK9  BANK10  BANK1
      +1  BANK12  BANK13  BANK14
  7948 ;;      Params:         0       0       0       0       0       0       0       0       0       0       0       0       
      +0       0       0       0
  7949 ;;      Locals:         0       0       0       0       0       0       0       0       0       0       0       0       
      +0       0       0       0
  7950 ;;      Temps:          0       0       0       0       0       0       0       0       0       0       0       0       
      +0       0       0       0
  7951 ;;      Totals:         0       0       0       0       0       0       0       0       0       0       0       0       
      +0       0       0       0
  7952 ;;Total ram usage:        0 bytes
  7953 ;; Hardware stack levels used:    1
  7954 ;; Hardware stack levels required when called:    2
  7955 ;; This function calls:
  7956 ;;		_USBCtrlTrfRxService
  7957 ;; This function is called by:
  7958 ;;		_USBCtrlEPService
  7959 ;; This function uses a non-reentrant model
  7960 ;;
  7961                           
  7962                           	psect	text45
  7963  002A90                     __ptext45:
  7964                           	opt callstack 0
  7965  002A90                     _USBCtrlTrfOutHandler:
  7966                           	opt callstack 22
  7967                           
  7968                           ;../../../../../../framework/usb/src/usb_device.c: 2547:     if(controlTransferState == 
      +                          2)
  7969                           
  7970                           ; BSR set to: 0
  7971                           ;incstack = 0
  7972  002A90  0E02               	movlw	2
  7973  002A92  1843               	xorwf	_controlTransferState,w,c	;volatile
  7974  002A94  A4D8               	btfss	status,2,c
  7975  002A96  D003               	goto	i2l4145
  7976                           
  7977                           ;../../../../../../framework/usb/src/usb_device.c: 2548:     {;../../../../../../framewo
      +                          rk/usb/src/usb_device.c: 2549:         USBCtrlTrfRxService();
  7978  002A98  ECED  F00D         	call	_USBCtrlTrfRxService	;wreg free
  7979                           
  7980                           ;../../../../../../framework/usb/src/usb_device.c: 2550:     }
  7981  002A9C  0012               	return	
  7982  002A9E                     i2l4145:
  7983                           
  7984                           ;../../../../../../framework/usb/src/usb_device.c: 2552:     {;../../../../../../framewo
      +                          rk/usb/src/usb_device.c: 2555:         controlTransferState = 0;
  7985  002A9E  0E00               	movlw	0
  7986  002AA0  6E43               	movwf	_controlTransferState,c	;volatile
  7987                           
  7988                           ;../../../../../../framework/usb/src/usb_device.c: 2562:         if(BothEP0OutUOWNsSet =
      +                          = 0)
  7989  002AA2  503F               	movf	_BothEP0OutUOWNsSet,w,c	;volatile
  7990  002AA4  A4D8               	btfss	status,2,c
  7991  002AA6  D01F               	goto	i2l4153
  7992                           
  7993                           ;../../../../../../framework/usb/src/usb_device.c: 2563:         {;../../../../../../fra
      +                          mework/usb/src/usb_device.c: 2564:             pBDTEntryEP0OutNext->CNT = 8;
  7994  002AA8  EE20 F001          	lfsr	2,1
  7995  002AAC  5032               	movf	_pBDTEntryEP0OutNext,w,c
  7996  002AAE  26D9               	addwf	fsr2l,f,c
  7997  002AB0  5033               	movf	_pBDTEntryEP0OutNext+1,w,c
  7998  002AB2  22DA               	addwfc	fsr2h,f,c
  7999  002AB4  0E08               	movlw	8
  8000  002AB6  6EDF               	movwf	indf2,c
  8001                           
  8002                           ;../../../../../../framework/usb/src/usb_device.c: 2565:             pBDTEntryEP0OutNext
      +                          ->ADR = ((uint16_t)(&SetupPkt));
  8003  002AB8  EE20 F002          	lfsr	2,2
  8004  002ABC  5032               	movf	_pBDTEntryEP0OutNext,w,c
  8005  002ABE  26D9               	addwf	fsr2l,f,c
  8006  002AC0  5033               	movf	_pBDTEntryEP0OutNext+1,w,c
  8007  002AC2  22DA               	addwfc	fsr2h,f,c
  8008  002AC4  0E30               	movlw	48
  8009  002AC6  6EDE               	movwf	postinc2,c
  8010  002AC8  0E04               	movlw	4
  8011  002ACA  6EDD               	movwf	postdec2,c
  8012                           
  8013                           ;../../../../../../framework/usb/src/usb_device.c: 2566:             pBDTEntryEP0OutNext
      +                          ->STAT.Val = 0x00|(0x08 & 0x08)|0x04;
  8014  002ACC  C032  FFD9         	movff	_pBDTEntryEP0OutNext,fsr2l
  8015  002AD0  C033  FFDA         	movff	_pBDTEntryEP0OutNext+1,fsr2h
  8016  002AD4  0E0C               	movlw	12
  8017  002AD6  6EDF               	movwf	indf2,c
  8018                           
  8019                           ;../../../../../../framework/usb/src/usb_device.c: 2567:             pBDTEntryEP0OutNext
      +                          ->STAT.Val |= 0x80;
  8020  002AD8  C032  FFD9         	movff	_pBDTEntryEP0OutNext,fsr2l
  8021  002ADC  C033  FFDA         	movff	_pBDTEntryEP0OutNext+1,fsr2h
  8022  002AE0  0E00               	movlw	0
  8023  002AE2  8EDB               	bsf	plusw2,7,c
  8024                           
  8025                           ;../../../../../../framework/usb/src/usb_device.c: 2568:         }
  8026  002AE4  0012               	return	
  8027  002AE6                     i2l4153:
  8028                           
  8029                           ;../../../../../../framework/usb/src/usb_device.c: 2570:         {;../../../../../../fra
      +                          mework/usb/src/usb_device.c: 2571:             BothEP0OutUOWNsSet = 0;
  8030  002AE6  0E00               	movlw	0
  8031  002AE8  6E3F               	movwf	_BothEP0OutUOWNsSet,c	;volatile
  8032  002AEA  0012               	return		;funcret
  8033  002AEC                     __end_of_USBCtrlTrfOutHandler:
  8034                           	opt callstack 0
  8035                           
  8036 ;; *************** function _USBCtrlTrfRxService *****************
  8037 ;; Defined at:
  8038 ;;		line 1856 in file "../../../../../../framework/usb/src/usb_device.c"
  8039 ;; Parameters:    Size  Location     Type
  8040 ;;		None
  8041 ;; Auto vars:     Size  Location     Type
  8042 ;;  byteToRead      1    1[COMRAM] unsigned char 
  8043 ;;  i               1    0[COMRAM] unsigned char 
  8044 ;; Return value:  Size  Location     Type
  8045 ;;                  1    wreg      void 
  8046 ;; Registers used:
  8047 ;;		wreg, fsr1l, fsr1h, fsr2l, fsr2h, status,2, status,0, cstack
  8048 ;; Tracked objects:
  8049 ;;		On entry : 0/0
  8050 ;;		On exit  : 0/0
  8051 ;;		Unchanged: 0/0
  8052 ;; Data sizes:     COMRAM   BANK0   BANK1   BANK2   BANK3   BANK4   BANK5   BANK6   BANK7   BANK8   BANK9  BANK10  BANK1
      +1  BANK12  BANK13  BANK14
  8053 ;;      Params:         0       0       0       0       0       0       0       0       0       0       0       0       
      +0       0       0       0
  8054 ;;      Locals:         2       0       0       0       0       0       0       0       0       0       0       0       
      +0       0       0       0
  8055 ;;      Temps:          0       0       0       0       0       0       0       0       0       0       0       0       
      +0       0       0       0
  8056 ;;      Totals:         2       0       0       0       0       0       0       0       0       0       0       0       
      +0       0       0       0
  8057 ;;Total ram usage:        2 bytes
  8058 ;; Hardware stack levels used:    1
  8059 ;; Hardware stack levels required when called:    1
  8060 ;; This function calls:
  8061 ;;		_USBCtrlEPAllowStatusStage
  8062 ;; This function is called by:
  8063 ;;		_USBCtrlTrfOutHandler
  8064 ;; This function uses a non-reentrant model
  8065 ;;
  8066                           
  8067                           	psect	text46
  8068  001BDA                     __ptext46:
  8069                           	opt callstack 0
  8070  001BDA                     _USBCtrlTrfRxService:
  8071                           	opt callstack 22
  8072                           
  8073                           ;../../../../../../framework/usb/src/usb_device.c: 1858:     uint8_t byteToRead;;../../.
      +                          ./../../../framework/usb/src/usb_device.c: 1859:     uint8_t i;;../../../../../../framew
      +                          ork/usb/src/usb_device.c: 1863:     byteToRead = pBDTEntryEP0OutCurrent->CNT;
  8074                           
  8075                           ;incstack = 0
  8076  001BDA  EE20 F001          	lfsr	2,1
  8077  001BDE  5034               	movf	_pBDTEntryEP0OutCurrent,w,c
  8078  001BE0  26D9               	addwf	fsr2l,f,c
  8079  001BE2  5035               	movf	_pBDTEntryEP0OutCurrent+1,w,c
  8080  001BE4  22DA               	addwfc	fsr2h,f,c
  8081  001BE6  50DF               	movf	indf2,w,c
  8082  001BE8  6E02               	movwf	USBCtrlTrfRxService@byteToRead,c
  8083                           
  8084                           ;../../../../../../framework/usb/src/usb_device.c: 1869:     if(byteToRead > outPipes[0]
      +                          .wCount.Val)
  8085  001BEA  5002               	movf	USBCtrlTrfRxService@byteToRead,w,c
  8086  001BEC  0100               	movlb	0	; () banked
  8087  001BEE  5D6E               	subwf	(_outPipes+4)& (0+255),w,b	;volatile
  8088  001BF0  0E00               	movlw	0
  8089  001BF2  596F               	subwfb	(_outPipes+5)& (0+255),w,b	;volatile
  8090  001BF4  A0D8               	btfss	status,0,c
  8091                           
  8092                           ; BSR set to: 0
  8093                           ;../../../../../../framework/usb/src/usb_device.c: 1870:     {;../../../../../../framewo
      +                          rk/usb/src/usb_device.c: 1871:         byteToRead = outPipes[0].wCount.Val;
  8094  001BF6  C06E  F002         	movff	_outPipes+4,USBCtrlTrfRxService@byteToRead	;volatile
  8095                           
  8096                           ; BSR set to: 0
  8097                           ;../../../../../../framework/usb/src/usb_device.c: 1874:     outPipes[0].wCount.Val -= b
      +                          yteToRead;
  8098  001BFA  5002               	movf	USBCtrlTrfRxService@byteToRead,w,c
  8099  001BFC  5F6E               	subwf	(_outPipes+4)& (0+255),f,b	;volatile
  8100  001BFE  0E00               	movlw	0
  8101  001C00  5B6F               	subwfb	(_outPipes+5)& (0+255),f,b	;volatile
  8102                           
  8103                           ; BSR set to: 0
  8104                           ;../../../../../../framework/usb/src/usb_device.c: 1878:     for(i=0;i<byteToRead;i++)
  8105  001C02  0E00               	movlw	0
  8106  001C04  6E01               	movwf	USBCtrlTrfRxService@i,c
  8107  001C06  D00F               	goto	i2l4001
  8108  001C08                     i2l3995:
  8109                           
  8110                           ; BSR set to: 0
  8111                           ;../../../../../../framework/usb/src/usb_device.c: 1879:     {;../../../../../../framewo
      +                          rk/usb/src/usb_device.c: 1880:         *outPipes[0].pDst.bRam++ = CtrlTrfData[i];
  8112  001C08  0E38               	movlw	56
  8113  001C0A  2401               	addwf	USBCtrlTrfRxService@i,w,c
  8114  001C0C  6ED9               	movwf	fsr2l,c
  8115  001C0E  6ADA               	clrf	fsr2h,c
  8116  001C10  0E04               	movlw	4
  8117  001C12  22DA               	addwfc	fsr2h,f,c
  8118  001C14  C06A  FFE1         	movff	_outPipes,fsr1l	;volatile
  8119  001C18  C06B  FFE2         	movff	_outPipes+1,fsr1h	;volatile
  8120  001C1C  CFDF FFE7          	movff	indf2,indf1
  8121                           
  8122                           ; BSR set to: 0
  8123  001C20  4B6A               	infsnz	_outPipes& (0+255),f,b	;volatile
  8124  001C22  2B6B               	incf	(_outPipes+1)& (0+255),f,b	;volatile
  8125                           
  8126                           ; BSR set to: 0
  8127                           ;../../../../../../framework/usb/src/usb_device.c: 1881:     }
  8128  001C24  2A01               	incf	USBCtrlTrfRxService@i,f,c
  8129  001C26                     i2l4001:
  8130                           
  8131                           ; BSR set to: 0
  8132  001C26  5002               	movf	USBCtrlTrfRxService@byteToRead,w,c
  8133  001C28  5C01               	subwf	USBCtrlTrfRxService@i,w,c
  8134  001C2A  A0D8               	btfss	status,0,c
  8135  001C2C  D7ED               	goto	i2l3995
  8136                           
  8137                           ; BSR set to: 0
  8138                           ;../../../../../../framework/usb/src/usb_device.c: 1885:     if(outPipes[0].wCount.Val >
      +                           0)
  8139  001C2E  516E               	movf	(_outPipes+4)& (0+255),w,b	;volatile
  8140  001C30  116F               	iorwf	(_outPipes+5)& (0+255),w,b	;volatile
  8141  001C32  B4D8               	btfsc	status,2,c
  8142  001C34  D032               	goto	i2l4017
  8143                           
  8144                           ; BSR set to: 0
  8145                           ;../../../../../../framework/usb/src/usb_device.c: 1886:     {;../../../../../../framewo
      +                          rk/usb/src/usb_device.c: 1887:         pBDTEntryEP0OutNext->CNT = 8;
  8146  001C36  EE20 F001          	lfsr	2,1
  8147  001C3A  5032               	movf	_pBDTEntryEP0OutNext,w,c
  8148  001C3C  26D9               	addwf	fsr2l,f,c
  8149  001C3E  5033               	movf	_pBDTEntryEP0OutNext+1,w,c
  8150  001C40  22DA               	addwfc	fsr2h,f,c
  8151  001C42  0E08               	movlw	8
  8152  001C44  6EDF               	movwf	indf2,c
  8153                           
  8154                           ;../../../../../../framework/usb/src/usb_device.c: 1888:         pBDTEntryEP0OutNext->AD
      +                          R = ((uint16_t)(&CtrlTrfData));
  8155  001C46  EE20 F002          	lfsr	2,2
  8156  001C4A  5032               	movf	_pBDTEntryEP0OutNext,w,c
  8157  001C4C  26D9               	addwf	fsr2l,f,c
  8158  001C4E  5033               	movf	_pBDTEntryEP0OutNext+1,w,c
  8159  001C50  22DA               	addwfc	fsr2h,f,c
  8160  001C52  0E38               	movlw	56
  8161  001C54  6EDE               	movwf	postinc2,c
  8162  001C56  0E04               	movlw	4
  8163  001C58  6EDD               	movwf	postdec2,c
  8164                           
  8165                           ; BSR set to: 0
  8166                           ;../../../../../../framework/usb/src/usb_device.c: 1889:         if(pBDTEntryEP0OutCurre
      +                          nt->STAT.DTS == 0)
  8167  001C5A  C034  FFD9         	movff	_pBDTEntryEP0OutCurrent,fsr2l
  8168  001C5E  C035  FFDA         	movff	_pBDTEntryEP0OutCurrent+1,fsr2h
  8169  001C62  BCDF               	btfsc	indf2,6,c
  8170  001C64  D00D               	goto	i2l4013
  8171                           
  8172                           ; BSR set to: 0
  8173                           ;../../../../../../framework/usb/src/usb_device.c: 1890:         {;../../../../../../fra
      +                          mework/usb/src/usb_device.c: 1891:             pBDTEntryEP0OutNext->STAT.Val = 0x40|(0x0
      +                          8 & 0x08);
  8174  001C66  C032  FFD9         	movff	_pBDTEntryEP0OutNext,fsr2l
  8175  001C6A  C033  FFDA         	movff	_pBDTEntryEP0OutNext+1,fsr2h
  8176  001C6E  0E48               	movlw	72
  8177  001C70  6EDF               	movwf	indf2,c
  8178                           
  8179                           ; BSR set to: 0
  8180                           ;../../../../../../framework/usb/src/usb_device.c: 1892:             pBDTEntryEP0OutNext
      +                          ->STAT.Val |= 0x80;
  8181  001C72  C032  FFD9         	movff	_pBDTEntryEP0OutNext,fsr2l
  8182  001C76  C033  FFDA         	movff	_pBDTEntryEP0OutNext+1,fsr2h
  8183  001C7A  0E00               	movlw	0
  8184  001C7C  8EDB               	bsf	plusw2,7,c
  8185                           
  8186                           ;../../../../../../framework/usb/src/usb_device.c: 1893:         }
  8187  001C7E  0012               	return	
  8188  001C80                     i2l4013:
  8189                           
  8190                           ; BSR set to: 0
  8191                           ;../../../../../../framework/usb/src/usb_device.c: 1895:         {;../../../../../../fra
      +                          mework/usb/src/usb_device.c: 1896:             pBDTEntryEP0OutNext->STAT.Val = 0x00|(0x0
      +                          8 & 0x08);
  8192  001C80  C032  FFD9         	movff	_pBDTEntryEP0OutNext,fsr2l
  8193  001C84  C033  FFDA         	movff	_pBDTEntryEP0OutNext+1,fsr2h
  8194  001C88  0E08               	movlw	8
  8195  001C8A  6EDF               	movwf	indf2,c
  8196                           
  8197                           ; BSR set to: 0
  8198                           ;../../../../../../framework/usb/src/usb_device.c: 1897:             pBDTEntryEP0OutNext
      +                          ->STAT.Val |= 0x80;
  8199  001C8C  C032  FFD9         	movff	_pBDTEntryEP0OutNext,fsr2l
  8200  001C90  C033  FFDA         	movff	_pBDTEntryEP0OutNext+1,fsr2h
  8201  001C94  0E00               	movlw	0
  8202  001C96  8EDB               	bsf	plusw2,7,c
  8203  001C98  0012               	return	
  8204  001C9A                     i2l4017:
  8205                           
  8206                           ; BSR set to: 0
  8207                           ;../../../../../../framework/usb/src/usb_device.c: 1901:     {;../../../../../../framewo
      +                          rk/usb/src/usb_device.c: 1905:         pBDTEntryEP0OutNext->CNT = 8;
  8208  001C9A  EE20 F001          	lfsr	2,1
  8209  001C9E  5032               	movf	_pBDTEntryEP0OutNext,w,c
  8210  001CA0  26D9               	addwf	fsr2l,f,c
  8211  001CA2  5033               	movf	_pBDTEntryEP0OutNext+1,w,c
  8212  001CA4  22DA               	addwfc	fsr2h,f,c
  8213  001CA6  0E08               	movlw	8
  8214  001CA8  6EDF               	movwf	indf2,c
  8215                           
  8216                           ;../../../../../../framework/usb/src/usb_device.c: 1906:         pBDTEntryEP0OutNext->AD
      +                          R = ((uint16_t)(&SetupPkt));
  8217  001CAA  EE20 F002          	lfsr	2,2
  8218  001CAE  5032               	movf	_pBDTEntryEP0OutNext,w,c
  8219  001CB0  26D9               	addwf	fsr2l,f,c
  8220  001CB2  5033               	movf	_pBDTEntryEP0OutNext+1,w,c
  8221  001CB4  22DA               	addwfc	fsr2h,f,c
  8222  001CB6  0E30               	movlw	48
  8223  001CB8  6EDE               	movwf	postinc2,c
  8224  001CBA  0E04               	movlw	4
  8225  001CBC  6EDD               	movwf	postdec2,c
  8226                           
  8227                           ; BSR set to: 0
  8228                           ;../../../../../../framework/usb/src/usb_device.c: 1910:         pBDTEntryEP0OutNext->ST
      +                          AT.Val = 0x04;
  8229  001CBE  C032  FFD9         	movff	_pBDTEntryEP0OutNext,fsr2l
  8230  001CC2  C033  FFDA         	movff	_pBDTEntryEP0OutNext+1,fsr2h
  8231  001CC6  0E04               	movlw	4
  8232  001CC8  6EDF               	movwf	indf2,c
  8233                           
  8234                           ; BSR set to: 0
  8235                           ;../../../../../../framework/usb/src/usb_device.c: 1911:         pBDTEntryEP0OutNext->ST
      +                          AT.Val |= 0x80;
  8236  001CCA  C032  FFD9         	movff	_pBDTEntryEP0OutNext,fsr2l
  8237  001CCE  C033  FFDA         	movff	_pBDTEntryEP0OutNext+1,fsr2h
  8238  001CD2  0E00               	movlw	0
  8239  001CD4  8EDB               	bsf	plusw2,7,c
  8240                           
  8241                           ; BSR set to: 0
  8242                           
  8243                           ; BSR set to: 0
  8244                           ;../../../../../../framework/usb/src/usb_device.c: 1919:         {
  8245  001CD6  9F6D               	bcf	(_outPipes+3)& (0+255),7,b	;volatile
  8246                           
  8247                           ; BSR set to: 0
  8248                           ;../../../../../../framework/usb/src/usb_device.c: 1945:         if(USBDeferStatusStageP
      +                          acket == 0)
  8249  001CD8  503D               	movf	_USBDeferStatusStagePacket,w,c	;volatile
  8250  001CDA  A4D8               	btfss	status,2,c
  8251  001CDC  0012               	return	
  8252                           
  8253                           ; BSR set to: 0
  8254                           ;../../../../../../framework/usb/src/usb_device.c: 1946:         {;../../../../../../fra
      +                          mework/usb/src/usb_device.c: 1947:             USBCtrlEPAllowStatusStage();
  8255  001CDE  EC1D  F011         	call	_USBCtrlEPAllowStatusStage	;wreg free
  8256  001CE2  0012               	return		;funcret
  8257  001CE4                     __end_of_USBCtrlTrfRxService:
  8258                           	opt callstack 0
  8259                           
  8260 ;; *************** function _USBCtrlEPAllowStatusStage *****************
  8261 ;; Defined at:
  8262 ;;		line 1420 in file "../../../../../../framework/usb/src/usb_device.c"
  8263 ;; Parameters:    Size  Location     Type
  8264 ;;		None
  8265 ;; Auto vars:     Size  Location     Type
  8266 ;;		None
  8267 ;; Return value:  Size  Location     Type
  8268 ;;                  1    wreg      void 
  8269 ;; Registers used:
  8270 ;;		wreg, fsr2l, fsr2h, status,2, status,0
  8271 ;; Tracked objects:
  8272 ;;		On entry : 0/0
  8273 ;;		On exit  : 0/0
  8274 ;;		Unchanged: 0/0
  8275 ;; Data sizes:     COMRAM   BANK0   BANK1   BANK2   BANK3   BANK4   BANK5   BANK6   BANK7   BANK8   BANK9  BANK10  BANK1
      +1  BANK12  BANK13  BANK14
  8276 ;;      Params:         0       0       0       0       0       0       0       0       0       0       0       0       
      +0       0       0       0
  8277 ;;      Locals:         0       0       0       0       0       0       0       0       0       0       0       0       
      +0       0       0       0
  8278 ;;      Temps:          0       0       0       0       0       0       0       0       0       0       0       0       
      +0       0       0       0
  8279 ;;      Totals:         0       0       0       0       0       0       0       0       0       0       0       0       
      +0       0       0       0
  8280 ;;Total ram usage:        0 bytes
  8281 ;; Hardware stack levels used:    1
  8282 ;; This function calls:
  8283 ;;		Nothing
  8284 ;; This function is called by:
  8285 ;;		_USBDeviceTasks
  8286 ;;		_USBCtrlEPServiceComplete
  8287 ;;		_USBCtrlTrfRxService
  8288 ;; This function uses a non-reentrant model
  8289 ;;
  8290                           
  8291                           	psect	text47
  8292  00223A                     __ptext47:
  8293                           	opt callstack 0
  8294  00223A                     _USBCtrlEPAllowStatusStage:
  8295                           	opt callstack 22
  8296                           
  8297                           ;../../../../../../framework/usb/src/usb_device.c: 1427:     if(USBStatusStageEnabledFla
      +                          g1 == 0)
  8298                           
  8299                           ;incstack = 0
  8300  00223A  503C               	movf	_USBStatusStageEnabledFlag1,w,c	;volatile
  8301  00223C  A4D8               	btfss	status,2,c
  8302  00223E  0012               	return	
  8303                           
  8304                           ;../../../../../../framework/usb/src/usb_device.c: 1428:     {;../../../../../../framewo
      +                          rk/usb/src/usb_device.c: 1429:         USBStatusStageEnabledFlag1 = 1;
  8305  002240  0E01               	movlw	1
  8306  002242  6E3C               	movwf	_USBStatusStageEnabledFlag1,c	;volatile
  8307                           
  8308                           ;../../../../../../framework/usb/src/usb_device.c: 1430:         if(USBStatusStageEnable
      +                          dFlag2 == 0)
  8309  002244  503B               	movf	_USBStatusStageEnabledFlag2,w,c	;volatile
  8310  002246  A4D8               	btfss	status,2,c
  8311  002248  0012               	return	
  8312                           
  8313                           ;../../../../../../framework/usb/src/usb_device.c: 1431:         {;../../../../../../fra
      +                          mework/usb/src/usb_device.c: 1432:             USBStatusStageEnabledFlag2 = 1;
  8314  00224A  0E01               	movlw	1
  8315  00224C  6E3B               	movwf	_USBStatusStageEnabledFlag2,c	;volatile
  8316                           
  8317                           ;../../../../../../framework/usb/src/usb_device.c: 1436:             if(controlTransferS
      +                          tate == 2)
  8318  00224E  0E02               	movlw	2
  8319  002250  1843               	xorwf	_controlTransferState,w,c	;volatile
  8320  002252  A4D8               	btfss	status,2,c
  8321  002254  D016               	goto	i2l3699
  8322                           
  8323                           ;../../../../../../framework/usb/src/usb_device.c: 1437:             {;../../../../../..
      +                          /framework/usb/src/usb_device.c: 1438:                 pBDTEntryIn[0]->CNT = 0;
  8324  002256  0100               	movlb	0	; () banked
  8325  002258  EE20 F001          	lfsr	2,1
  8326  00225C  5178               	movf	_pBDTEntryIn& (0+255),w,b
  8327  00225E  26D9               	addwf	fsr2l,f,c
  8328  002260  5179               	movf	(_pBDTEntryIn+1)& (0+255),w,b
  8329  002262  22DA               	addwfc	fsr2h,f,c
  8330  002264  0E00               	movlw	0
  8331  002266  6EDF               	movwf	indf2,c
  8332                           
  8333                           ; BSR set to: 0
  8334                           ;../../../../../../framework/usb/src/usb_device.c: 1439:                 pBDTEntryIn[0]-
      +                          >STAT.Val = 0x40|(0x08 & 0x08);
  8335  002268  C078  FFD9         	movff	_pBDTEntryIn,fsr2l
  8336  00226C  C079  FFDA         	movff	_pBDTEntryIn+1,fsr2h
  8337  002270  0E48               	movlw	72
  8338  002272  6EDF               	movwf	indf2,c
  8339                           
  8340                           ; BSR set to: 0
  8341                           ;../../../../../../framework/usb/src/usb_device.c: 1440:                 pBDTEntryIn[0]-
      +                          >STAT.Val |= 0x80;
  8342  002274  C078  FFD9         	movff	_pBDTEntryIn,fsr2l
  8343  002278  C079  FFDA         	movff	_pBDTEntryIn+1,fsr2h
  8344  00227C  0E00               	movlw	0
  8345  00227E  8EDB               	bsf	plusw2,7,c
  8346                           
  8347                           ;../../../../../../framework/usb/src/usb_device.c: 1441:             }
  8348  002280  0012               	return	
  8349  002282                     i2l3699:
  8350  002282  0443               	decf	_controlTransferState,w,c	;volatile
  8351  002284  A4D8               	btfss	status,2,c
  8352  002286  0012               	return	
  8353                           
  8354                           ;../../../../../../framework/usb/src/usb_device.c: 1443:             {;../../../../../..
      +                          /framework/usb/src/usb_device.c: 1444:                 BothEP0OutUOWNsSet = 0;
  8355  002288  0E00               	movlw	0
  8356  00228A  6E3F               	movwf	_BothEP0OutUOWNsSet,c	;volatile
  8357                           
  8358                           ;../../../../../../framework/usb/src/usb_device.c: 1449:                     pBDTEntryEP
      +                          0OutCurrent->CNT = 8;
  8359  00228C  EE20 F001          	lfsr	2,1
  8360  002290  5034               	movf	_pBDTEntryEP0OutCurrent,w,c
  8361  002292  26D9               	addwf	fsr2l,f,c
  8362  002294  5035               	movf	_pBDTEntryEP0OutCurrent+1,w,c
  8363  002296  22DA               	addwfc	fsr2h,f,c
  8364  002298  0E08               	movlw	8
  8365  00229A  6EDF               	movwf	indf2,c
  8366                           
  8367                           ;../../../../../../framework/usb/src/usb_device.c: 1450:                     pBDTEntryEP
      +                          0OutCurrent->ADR = ((uint16_t)(&SetupPkt));
  8368  00229C  EE20 F002          	lfsr	2,2
  8369  0022A0  5034               	movf	_pBDTEntryEP0OutCurrent,w,c
  8370  0022A2  26D9               	addwf	fsr2l,f,c
  8371  0022A4  5035               	movf	_pBDTEntryEP0OutCurrent+1,w,c
  8372  0022A6  22DA               	addwfc	fsr2h,f,c
  8373  0022A8  0E30               	movlw	48
  8374  0022AA  6EDE               	movwf	postinc2,c
  8375  0022AC  0E04               	movlw	4
  8376  0022AE  6EDD               	movwf	postdec2,c
  8377                           
  8378                           ;../../../../../../framework/usb/src/usb_device.c: 1451:                     pBDTEntryEP
      +                          0OutCurrent->STAT.Val = 0x04;
  8379  0022B0  C034  FFD9         	movff	_pBDTEntryEP0OutCurrent,fsr2l
  8380  0022B4  C035  FFDA         	movff	_pBDTEntryEP0OutCurrent+1,fsr2h
  8381  0022B8  0E04               	movlw	4
  8382  0022BA  6EDF               	movwf	indf2,c
  8383                           
  8384                           ;../../../../../../framework/usb/src/usb_device.c: 1452:                     pBDTEntryEP
      +                          0OutCurrent->STAT.Val |= 0x80;
  8385  0022BC  C034  FFD9         	movff	_pBDTEntryEP0OutCurrent,fsr2l
  8386  0022C0  C035  FFDA         	movff	_pBDTEntryEP0OutCurrent+1,fsr2h
  8387  0022C4  0E00               	movlw	0
  8388  0022C6  8EDB               	bsf	plusw2,7,c
  8389                           
  8390                           ;../../../../../../framework/usb/src/usb_device.c: 1453:                     BothEP0OutU
      +                          OWNsSet = 1;
  8391  0022C8  0E01               	movlw	1
  8392  0022CA  6E3F               	movwf	_BothEP0OutUOWNsSet,c	;volatile
  8393                           
  8394                           ;../../../../../../framework/usb/src/usb_device.c: 1457:                 pBDTEntryEP0Out
      +                          Next->CNT = 8;
  8395  0022CC  EE20 F001          	lfsr	2,1
  8396  0022D0  5032               	movf	_pBDTEntryEP0OutNext,w,c
  8397  0022D2  26D9               	addwf	fsr2l,f,c
  8398  0022D4  5033               	movf	_pBDTEntryEP0OutNext+1,w,c
  8399  0022D6  22DA               	addwfc	fsr2h,f,c
  8400  0022D8  0E08               	movlw	8
  8401  0022DA  6EDF               	movwf	indf2,c
  8402                           
  8403                           ;../../../../../../framework/usb/src/usb_device.c: 1458:                 pBDTEntryEP0Out
      +                          Next->ADR = ((uint16_t)(&SetupPkt));
  8404  0022DC  EE20 F002          	lfsr	2,2
  8405  0022E0  5032               	movf	_pBDTEntryEP0OutNext,w,c
  8406  0022E2  26D9               	addwf	fsr2l,f,c
  8407  0022E4  5033               	movf	_pBDTEntryEP0OutNext+1,w,c
  8408  0022E6  22DA               	addwfc	fsr2h,f,c
  8409  0022E8  0E30               	movlw	48
  8410  0022EA  6EDE               	movwf	postinc2,c
  8411  0022EC  0E04               	movlw	4
  8412  0022EE  6EDD               	movwf	postdec2,c
  8413                           
  8414                           ;../../../../../../framework/usb/src/usb_device.c: 1459:                 pBDTEntryEP0Out
      +                          Next->STAT.Val = 0x80;
  8415  0022F0  C032  FFD9         	movff	_pBDTEntryEP0OutNext,fsr2l
  8416  0022F4  C033  FFDA         	movff	_pBDTEntryEP0OutNext+1,fsr2h
  8417  0022F8  0E80               	movlw	128
  8418  0022FA  6EDF               	movwf	indf2,c
  8419  0022FC  0012               	return	
  8420  0022FE                     __end_of_USBCtrlEPAllowStatusStage:
  8421                           	opt callstack 0
  8422                           
  8423 ;; *************** function _USBCtrlTrfInHandler *****************
  8424 ;; Defined at:
  8425 ;;		line 2599 in file "../../../../../../framework/usb/src/usb_device.c"
  8426 ;; Parameters:    Size  Location     Type
  8427 ;;		None
  8428 ;; Auto vars:     Size  Location     Type
  8429 ;;  lastDTS         1    1[COMRAM] unsigned char 
  8430 ;; Return value:  Size  Location     Type
  8431 ;;                  1    wreg      void 
  8432 ;; Registers used:
  8433 ;;		wreg, fsr1l, fsr1h, fsr2l, fsr2h, status,2, status,0, tblptrl, tblptrh, tblptru, cstack
  8434 ;; Tracked objects:
  8435 ;;		On entry : 0/0
  8436 ;;		On exit  : 0/0
  8437 ;;		Unchanged: 0/0
  8438 ;; Data sizes:     COMRAM   BANK0   BANK1   BANK2   BANK3   BANK4   BANK5   BANK6   BANK7   BANK8   BANK9  BANK10  BANK1
      +1  BANK12  BANK13  BANK14
  8439 ;;      Params:         0       0       0       0       0       0       0       0       0       0       0       0       
      +0       0       0       0
  8440 ;;      Locals:         1       0       0       0       0       0       0       0       0       0       0       0       
      +0       0       0       0
  8441 ;;      Temps:          0       0       0       0       0       0       0       0       0       0       0       0       
      +0       0       0       0
  8442 ;;      Totals:         1       0       0       0       0       0       0       0       0       0       0       0       
      +0       0       0       0
  8443 ;;Total ram usage:        1 bytes
  8444 ;; Hardware stack levels used:    1
  8445 ;; Hardware stack levels required when called:    1
  8446 ;; This function calls:
  8447 ;;		_USBCtrlTrfTxService
  8448 ;; This function is called by:
  8449 ;;		_USBCtrlEPService
  8450 ;; This function uses a non-reentrant model
  8451 ;;
  8452                           
  8453                           	psect	text48
  8454  0022FE                     __ptext48:
  8455                           	opt callstack 0
  8456  0022FE                     _USBCtrlTrfInHandler:
  8457                           	opt callstack 23
  8458                           
  8459                           ;../../../../../../framework/usb/src/usb_device.c: 2601:     uint8_t lastDTS;;../../../.
      +                          ./../../framework/usb/src/usb_device.c: 2603:     lastDTS = pBDTEntryIn[0]->STAT.DTS;
  8460                           
  8461                           ;incstack = 0
  8462  0022FE  C078  FFD9         	movff	_pBDTEntryIn,fsr2l
  8463  002302  C079  FFDA         	movff	_pBDTEntryIn+1,fsr2h
  8464  002306  0100               	movlb	0	; () banked
  8465  002308  0E00               	movlw	0
  8466  00230A  BCDF               	btfsc	indf2,6,c
  8467  00230C  0E01               	movlw	1
  8468  00230E  6E02               	movwf	USBCtrlTrfInHandler@lastDTS,c
  8469                           
  8470                           ; BSR set to: 0
  8471                           ;../../../../../../framework/usb/src/usb_device.c: 2606:     pBDTEntryIn[0] = (volatile 
      +                          BDT_ENTRY*)(((uint16_t)pBDTEntryIn[0]) ^ 0x0004);
  8472  002310  0E04               	movlw	4
  8473  002312  1978               	xorwf	_pBDTEntryIn& (0+255),w,b
  8474  002314  6F78               	movwf	_pBDTEntryIn& (0+255),b
  8475  002316  5179               	movf	(_pBDTEntryIn+1)& (0+255),w,b
  8476  002318  6F79               	movwf	(_pBDTEntryIn+1)& (0+255),b
  8477                           
  8478                           ; BSR set to: 0
  8479                           ;../../../../../../framework/usb/src/usb_device.c: 2611:     if(USBDeviceState == ADR_PE
      +                          NDING_STATE)
  8480  00231A  0E08               	movlw	8
  8481  00231C  1845               	xorwf	_USBDeviceState,w,c	;volatile
  8482  00231E  A4D8               	btfss	status,2,c
  8483  002320  D00C               	goto	i2l4169
  8484                           
  8485                           ; BSR set to: 0
  8486                           ;../../../../../../framework/usb/src/usb_device.c: 2612:     {;../../../../../../framewo
      +                          rk/usb/src/usb_device.c: 2613:         UADDR = (SetupPkt.bDevADR & 0x7F);
  8487  002322  0104               	movlb	4	; () banked
  8488  002324  5132               	movf	50,w,b	;volatile
  8489  002326  0B7F               	andlw	127
  8490  002328  010F               	movlb	15	; () banked
  8491  00232A  6F38               	movwf	56,b	;volatile
  8492                           
  8493                           ; BSR set to: 15
  8494                           ;../../../../../../framework/usb/src/usb_device.c: 2614:         if(UADDR != 0u)
  8495  00232C  5138               	movf	56,w,b	;volatile
  8496  00232E  B4D8               	btfsc	status,2,c
  8497  002330  D002               	goto	i2l4167
  8498                           
  8499                           ; BSR set to: 15
  8500                           ;../../../../../../framework/usb/src/usb_device.c: 2615:         {;../../../../../../fra
      +                          mework/usb/src/usb_device.c: 2616:             USBDeviceState=ADDRESS_STATE;
  8501  002332  0E10               	movlw	16
  8502  002334  D001               	goto	L16
  8503  002336                     i2l4167:
  8504                           
  8505                           ; BSR set to: 15
  8506                           ;../../../../../../framework/usb/src/usb_device.c: 2619:         {;../../../../../../fra
      +                          mework/usb/src/usb_device.c: 2620:             USBDeviceState=DEFAULT_STATE;
  8507  002336  0E04               	movlw	4
  8508  002338                     L16:
  8509  002338  6E45               	movwf	_USBDeviceState,c	;volatile
  8510  00233A                     i2l4169:
  8511                           
  8512                           ;../../../../../../framework/usb/src/usb_device.c: 2625:     if(controlTransferState == 
      +                          1)
  8513  00233A  0443               	decf	_controlTransferState,w,c	;volatile
  8514  00233C  A4D8               	btfss	status,2,c
  8515  00233E  D03B               	goto	i2l401
  8516                           
  8517                           ;../../../../../../framework/usb/src/usb_device.c: 2626:     {;../../../../../../framewo
      +                          rk/usb/src/usb_device.c: 2627:         pBDTEntryIn[0]->ADR = ((uint16_t)(CtrlTrfData));
  8518  002340  0100               	movlb	0	; () banked
  8519  002342  EE20 F002          	lfsr	2,2
  8520  002346  5178               	movf	_pBDTEntryIn& (0+255),w,b
  8521  002348  26D9               	addwf	fsr2l,f,c
  8522  00234A  5179               	movf	(_pBDTEntryIn+1)& (0+255),w,b
  8523  00234C  22DA               	addwfc	fsr2h,f,c
  8524  00234E  0E38               	movlw	56
  8525  002350  6EDE               	movwf	postinc2,c
  8526  002352  0E04               	movlw	4
  8527  002354  6EDD               	movwf	postdec2,c
  8528                           
  8529                           ; BSR set to: 0
  8530                           ;../../../../../../framework/usb/src/usb_device.c: 2628:         USBCtrlTrfTxService();
  8531  002356  ECB7  F010         	call	_USBCtrlTrfTxService	;wreg free
  8532                           
  8533                           ;../../../../../../framework/usb/src/usb_device.c: 2634:         if(shortPacketStatus ==
      +                           2)
  8534  00235A  0E02               	movlw	2
  8535  00235C  1844               	xorwf	_shortPacketStatus,w,c	;volatile
  8536  00235E  A4D8               	btfss	status,2,c
  8537  002360  D00D               	goto	i2l4181
  8538                           
  8539                           ;../../../../../../framework/usb/src/usb_device.c: 2635:         {;../../../../../../fra
      +                          mework/usb/src/usb_device.c: 2638:             pBDTEntryIn[0]->STAT.Val = 0x04;
  8540  002362  C078  FFD9         	movff	_pBDTEntryIn,fsr2l
  8541  002366  C079  FFDA         	movff	_pBDTEntryIn+1,fsr2h
  8542  00236A  0E04               	movlw	4
  8543  00236C  6EDF               	movwf	indf2,c
  8544                           
  8545                           ;../../../../../../framework/usb/src/usb_device.c: 2639:             pBDTEntryIn[0]->STA
      +                          T.Val |= 0x80;
  8546  00236E  C078  FFD9         	movff	_pBDTEntryIn,fsr2l
  8547  002372  C079  FFDA         	movff	_pBDTEntryIn+1,fsr2h
  8548  002376  0E00               	movlw	0
  8549  002378  8EDB               	bsf	plusw2,7,c
  8550                           
  8551                           ;../../../../../../framework/usb/src/usb_device.c: 2640:         }
  8552  00237A  0012               	return	
  8553  00237C                     i2l4181:
  8554                           
  8555                           ;../../../../../../framework/usb/src/usb_device.c: 2642:         {;../../../../../../fra
      +                          mework/usb/src/usb_device.c: 2643:             if(lastDTS == 0)
  8556  00237C  5002               	movf	USBCtrlTrfInHandler@lastDTS,w,c
  8557  00237E  A4D8               	btfss	status,2,c
  8558  002380  D00D               	goto	i2l4187
  8559                           
  8560                           ;../../../../../../framework/usb/src/usb_device.c: 2644:             {;../../../../../..
      +                          /framework/usb/src/usb_device.c: 2645:                 pBDTEntryIn[0]->STAT.Val = 0x40|(
      +                          0x08 & 0x08);
  8561  002382  C078  FFD9         	movff	_pBDTEntryIn,fsr2l
  8562  002386  C079  FFDA         	movff	_pBDTEntryIn+1,fsr2h
  8563  00238A  0E48               	movlw	72
  8564  00238C  6EDF               	movwf	indf2,c
  8565                           
  8566                           ;../../../../../../framework/usb/src/usb_device.c: 2646:                 pBDTEntryIn[0]-
      +                          >STAT.Val |= 0x80;
  8567  00238E  C078  FFD9         	movff	_pBDTEntryIn,fsr2l
  8568  002392  C079  FFDA         	movff	_pBDTEntryIn+1,fsr2h
  8569  002396  0E00               	movlw	0
  8570  002398  8EDB               	bsf	plusw2,7,c
  8571                           
  8572                           ;../../../../../../framework/usb/src/usb_device.c: 2647:             }
  8573  00239A  0012               	return	
  8574  00239C                     i2l4187:
  8575                           
  8576                           ;../../../../../../framework/usb/src/usb_device.c: 2649:             {;../../../../../..
      +                          /framework/usb/src/usb_device.c: 2650:                 pBDTEntryIn[0]->STAT.Val = 0x00|(
      +                          0x08 & 0x08);
  8577  00239C  C078  FFD9         	movff	_pBDTEntryIn,fsr2l
  8578  0023A0  C079  FFDA         	movff	_pBDTEntryIn+1,fsr2h
  8579  0023A4  0E08               	movlw	8
  8580  0023A6  6EDF               	movwf	indf2,c
  8581                           
  8582                           ;../../../../../../framework/usb/src/usb_device.c: 2651:                 pBDTEntryIn[0]-
      +                          >STAT.Val |= 0x80;
  8583  0023A8  C078  FFD9         	movff	_pBDTEntryIn,fsr2l
  8584  0023AC  C079  FFDA         	movff	_pBDTEntryIn+1,fsr2h
  8585  0023B0  0E00               	movlw	0
  8586  0023B2  8EDB               	bsf	plusw2,7,c
  8587  0023B4  0012               	return	
  8588  0023B6                     i2l401:
  8589                           
  8590                           ;../../../../../../framework/usb/src/usb_device.c: 2656:  {;../../../../../../framework/
      +                          usb/src/usb_device.c: 2660:         if(outPipes[0].info.bits.busy == 1)
  8591  0023B6  0100               	movlb	0	; () banked
  8592  0023B8  BF6D               	btfsc	(_outPipes+3)& (0+255),7,b	;volatile
  8593                           
  8594                           ; BSR set to: 0
  8595                           ;../../../../../../framework/usb/src/usb_device.c: 2666:             outPipes[0].info.bi
      +                          ts.busy = 0;
  8596                           
  8597                           ; BSR set to: 0
  8598                           ;../../../../../../framework/usb/src/usb_device.c: 2663:             {;../../../../../..
      +                          /framework/usb/src/usb_device.c: 2664:                 outPipes[0].pFunc();
  8599                           ;../../../../../../framework/usb/src/usb_device.c: 2665:             }
  8600  0023BA  9F6D               	bcf	(_outPipes+3)& (0+255),7,b	;volatile
  8601                           
  8602                           ; BSR set to: 0
  8603                           ;../../../../../../framework/usb/src/usb_device.c: 2669:         controlTransferState = 
      +                          0;
  8604  0023BC  0E00               	movlw	0
  8605  0023BE  6E43               	movwf	_controlTransferState,c	;volatile
  8606  0023C0  0012               	return		;funcret
  8607  0023C2                     __end_of_USBCtrlTrfInHandler:
  8608                           	opt callstack 0
  8609                           
  8610 ;; *************** function _USBCtrlTrfTxService *****************
  8611 ;; Defined at:
  8612 ;;		line 1775 in file "../../../../../../framework/usb/src/usb_device.c"
  8613 ;; Parameters:    Size  Location     Type
  8614 ;;		None
  8615 ;; Auto vars:     Size  Location     Type
  8616 ;;  byteToSend      1    0[COMRAM] unsigned char 
  8617 ;; Return value:  Size  Location     Type
  8618 ;;                  1    wreg      void 
  8619 ;; Registers used:
  8620 ;;		wreg, fsr1l, fsr1h, fsr2l, fsr2h, status,2, status,0, tblptrl, tblptrh, tblptru
  8621 ;; Tracked objects:
  8622 ;;		On entry : 0/0
  8623 ;;		On exit  : 0/0
  8624 ;;		Unchanged: 0/0
  8625 ;; Data sizes:     COMRAM   BANK0   BANK1   BANK2   BANK3   BANK4   BANK5   BANK6   BANK7   BANK8   BANK9  BANK10  BANK1
      +1  BANK12  BANK13  BANK14
  8626 ;;      Params:         0       0       0       0       0       0       0       0       0       0       0       0       
      +0       0       0       0
  8627 ;;      Locals:         1       0       0       0       0       0       0       0       0       0       0       0       
      +0       0       0       0
  8628 ;;      Temps:          0       0       0       0       0       0       0       0       0       0       0       0       
      +0       0       0       0
  8629 ;;      Totals:         1       0       0       0       0       0       0       0       0       0       0       0       
      +0       0       0       0
  8630 ;;Total ram usage:        1 bytes
  8631 ;; Hardware stack levels used:    1
  8632 ;; This function calls:
  8633 ;;		Nothing
  8634 ;; This function is called by:
  8635 ;;		_USBCtrlEPAllowDataStage
  8636 ;;		_USBCtrlTrfInHandler
  8637 ;; This function uses a non-reentrant model
  8638 ;;
  8639                           
  8640                           	psect	text49
  8641  00216E                     __ptext49:
  8642                           	opt callstack 0
  8643  00216E                     _USBCtrlTrfTxService:
  8644                           	opt callstack 21
  8645                           
  8646                           ;../../../../../../framework/usb/src/usb_device.c: 1777:     uint8_t byteToSend;;../../.
      +                          ./../../../framework/usb/src/usb_device.c: 1781:     byteToSend = 8;
  8647                           
  8648                           ;incstack = 0
  8649  00216E  0E08               	movlw	8
  8650  002170  6E01               	movwf	USBCtrlTrfTxService@byteToSend,c
  8651                           
  8652                           ;../../../../../../framework/usb/src/usb_device.c: 1782:     if(inPipes[0].wCount.Val < 
      +                          (uint8_t)8)
  8653  002172  0100               	movlb	0	; () banked
  8654  002174  5177               	movf	(_inPipes+5)& (0+255),w,b	;volatile
  8655  002176  E110               	bnz	i2l3623
  8656  002178  0E08               	movlw	8
  8657  00217A  5D76               	subwf	(_inPipes+4)& (0+255),w,b	;volatile
  8658  00217C  B0D8               	btfsc	status,0,c
  8659  00217E  D00C               	goto	i2l3623
  8660                           
  8661                           ; BSR set to: 0
  8662                           ;../../../../../../framework/usb/src/usb_device.c: 1783:     {;../../../../../../framewo
      +                          rk/usb/src/usb_device.c: 1784:         byteToSend = inPipes[0].wCount.Val;
  8663  002180  C076  F001         	movff	_inPipes+4,USBCtrlTrfTxService@byteToSend	;volatile
  8664                           
  8665                           ; BSR set to: 0
  8666                           ;../../../../../../framework/usb/src/usb_device.c: 1791:         if(shortPacketStatus ==
      +                           0)
  8667  002184  5044               	movf	_shortPacketStatus,w,c	;volatile
  8668  002186  A4D8               	btfss	status,2,c
  8669  002188  D002               	goto	i2l3619
  8670                           
  8671                           ; BSR set to: 0
  8672                           ;../../../../../../framework/usb/src/usb_device.c: 1792:         {;../../../../../../fra
      +                          mework/usb/src/usb_device.c: 1793:             shortPacketStatus = 1;
  8673  00218A  0E01               	movlw	1
  8674  00218C  D004               	goto	L17
  8675  00218E                     i2l3619:
  8676                           
  8677                           ; BSR set to: 0
  8678  00218E  0444               	decf	_shortPacketStatus,w,c	;volatile
  8679  002190  A4D8               	btfss	status,2,c
  8680  002192  D002               	goto	i2l3623
  8681                           
  8682                           ; BSR set to: 0
  8683                           ;../../../../../../framework/usb/src/usb_device.c: 1796:         {;../../../../../../fra
      +                          mework/usb/src/usb_device.c: 1797:             shortPacketStatus = 2;
  8684  002194  0E02               	movlw	2
  8685  002196                     L17:
  8686  002196  6E44               	movwf	_shortPacketStatus,c	;volatile
  8687  002198                     i2l3623:
  8688                           
  8689                           ; BSR set to: 0
  8690                           ;../../../../../../framework/usb/src/usb_device.c: 1803:     inPipes[0].wCount.Val -= by
      +                          teToSend;
  8691  002198  5001               	movf	USBCtrlTrfTxService@byteToSend,w,c
  8692  00219A  5F76               	subwf	(_inPipes+4)& (0+255),f,b	;volatile
  8693  00219C  0E00               	movlw	0
  8694  00219E  5B77               	subwfb	(_inPipes+5)& (0+255),f,b	;volatile
  8695                           
  8696                           ; BSR set to: 0
  8697                           ;../../../../../../framework/usb/src/usb_device.c: 1808:     pBDTEntryIn[0]->CNT = byteT
      +                          oSend;
  8698  0021A0  EE20 F001          	lfsr	2,1
  8699  0021A4  5178               	movf	_pBDTEntryIn& (0+255),w,b
  8700  0021A6  26D9               	addwf	fsr2l,f,c
  8701  0021A8  5179               	movf	(_pBDTEntryIn+1)& (0+255),w,b
  8702  0021AA  22DA               	addwfc	fsr2h,f,c
  8703  0021AC  C001  FFDF         	movff	USBCtrlTrfTxService@byteToSend,indf2
  8704                           
  8705                           ; BSR set to: 0
  8706                           ;../../../../../../framework/usb/src/usb_device.c: 1812:     pDst = (volatile uint8_t*)C
      +                          trlTrfData;
  8707  0021B0  0E38               	movlw	56
  8708  0021B2  6E30               	movwf	_pDst,c
  8709  0021B4  0E04               	movlw	4
  8710  0021B6  6E31               	movwf	_pDst+1,c
  8711                           
  8712                           ; BSR set to: 0
  8713                           ;../../../../../../framework/usb/src/usb_device.c: 1813:     if(inPipes[0].info.bits.ctr
      +                          l_trf_mem == 0x00)
  8714  0021B8  A175               	btfss	(_inPipes+3)& (0+255),0,b	;volatile
  8715  0021BA  D01C               	goto	i2l3641
  8716  0021BC  D03A               	goto	i2l3651
  8717  0021BE                     i2l3633:
  8718                           
  8719                           ; BSR set to: 0
  8720                           ;../../../../../../framework/usb/src/usb_device.c: 1816:         {;../../../../../../fra
      +                          mework/usb/src/usb_device.c: 1817:             *pDst++ = *inPipes[0].pSrc.bRom++;
  8721  0021BE  C072  FFF6         	movff	_inPipes,tblptrl	;volatile
  8722  0021C2  C073  FFF7         	movff	_inPipes+1,tblptrh	;volatile
  8723  0021C6  6AF8               	clrf	tblptru,c
  8724  0021C8  C030  FFD9         	movff	_pDst,fsr2l
  8725  0021CC  C031  FFDA         	movff	_pDst+1,fsr2h
  8726  0021D0  0E0E               	movlw	(high __ramtop+-1)
  8727  0021D2  64F7               	cpfsgt	tblptrh,c
  8728  0021D4  D003               	bra	i2u204_47
  8729  0021D6  0008               	tblrd		*
  8730  0021D8  50F5               	movf	tablat,w,c
  8731  0021DA  D005               	bra	i2u204_40
  8732  0021DC                     i2u204_47:
  8733  0021DC  CFF6 FFE1          	movff	tblptrl,fsr1l
  8734  0021E0  CFF7 FFE2          	movff	tblptrh,fsr1h
  8735  0021E4  50E7               	movf	indf1,w,c
  8736  0021E6                     i2u204_40:
  8737  0021E6  6EDF               	movwf	indf2,c
  8738  0021E8  0100               	movlb	0	; () banked
  8739  0021EA  4B72               	infsnz	_inPipes& (0+255),f,b	;volatile
  8740  0021EC  2B73               	incf	(_inPipes+1)& (0+255),f,b	;volatile
  8741                           
  8742                           ; BSR set to: 0
  8743  0021EE  4A30               	infsnz	_pDst,f,c
  8744  0021F0  2A31               	incf	_pDst+1,f,c
  8745                           
  8746                           ; BSR set to: 0
  8747                           ;../../../../../../framework/usb/src/usb_device.c: 1818:             byteToSend--;
  8748  0021F2  0601               	decf	USBCtrlTrfTxService@byteToSend,f,c
  8749  0021F4                     i2l3641:
  8750                           
  8751                           ; BSR set to: 0
  8752                           ;../../../../../../framework/usb/src/usb_device.c: 1815:         while(byteToSend)
  8753  0021F4  5001               	movf	USBCtrlTrfTxService@byteToSend,w,c
  8754  0021F6  B4D8               	btfsc	status,2,c
  8755  0021F8  0012               	return	
  8756  0021FA  D7E1               	goto	i2l3633
  8757  0021FC                     i2l3643:
  8758                           
  8759                           ; BSR set to: 0
  8760                           ;../../../../../../framework/usb/src/usb_device.c: 1824:         {;../../../../../../fra
      +                          mework/usb/src/usb_device.c: 1825:             *pDst++ = *inPipes[0].pSrc.bRam++;
  8761  0021FC  C072  FFF6         	movff	_inPipes,tblptrl	;volatile
  8762  002200  C073  FFF7         	movff	_inPipes+1,tblptrh	;volatile
  8763  002204  6AF8               	clrf	tblptru,c
  8764  002206  C030  FFD9         	movff	_pDst,fsr2l
  8765  00220A  C031  FFDA         	movff	_pDst+1,fsr2h
  8766  00220E  0E0E               	movlw	(high __ramtop+-1)
  8767  002210  64F7               	cpfsgt	tblptrh,c
  8768  002212  D003               	bra	i2u206_47
  8769  002214  0008               	tblrd		*
  8770  002216  50F5               	movf	tablat,w,c
  8771  002218  D005               	bra	i2u206_40
  8772  00221A                     i2u206_47:
  8773  00221A  CFF6 FFE1          	movff	tblptrl,fsr1l
  8774  00221E  CFF7 FFE2          	movff	tblptrh,fsr1h
  8775  002222  50E7               	movf	indf1,w,c
  8776  002224                     i2u206_40:
  8777  002224  6EDF               	movwf	indf2,c
  8778  002226  0100               	movlb	0	; () banked
  8779  002228  4B72               	infsnz	_inPipes& (0+255),f,b	;volatile
  8780  00222A  2B73               	incf	(_inPipes+1)& (0+255),f,b	;volatile
  8781                           
  8782                           ; BSR set to: 0
  8783  00222C  4A30               	infsnz	_pDst,f,c
  8784  00222E  2A31               	incf	_pDst+1,f,c
  8785                           
  8786                           ; BSR set to: 0
  8787                           ;../../../../../../framework/usb/src/usb_device.c: 1826:             byteToSend--;
  8788  002230  0601               	decf	USBCtrlTrfTxService@byteToSend,f,c
  8789  002232                     i2l3651:
  8790                           
  8791                           ; BSR set to: 0
  8792                           ;../../../../../../framework/usb/src/usb_device.c: 1823:         while(byteToSend)
  8793  002232  5001               	movf	USBCtrlTrfTxService@byteToSend,w,c
  8794  002234  B4D8               	btfsc	status,2,c
  8795  002236  0012               	return	
  8796  002238  D7E1               	goto	i2l3643
  8797  00223A                     __end_of_USBCtrlTrfTxService:
  8798                           	opt callstack 0
  8799                           
  8800                           	psect	rparam
  8801  0000                     
  8802                           	psect	temp
  8803  000051                     btemp:
  8804                           	opt callstack 0
  8805  000051                     	ds	1
  8806  0000                     int$flags	set	btemp
  8807  0000                     wtemp8	set	btemp+1
  8808  0000                     ttemp5	set	btemp+1
  8809  0000                     ttemp6	set	btemp+4
  8810  0000                     ttemp7	set	btemp+8
  8811                           tosu	equ	0xFFF
  8812                           tosh	equ	0xFFE
  8813                           tosl	equ	0xFFD
  8814                           stkptr	equ	0xFFC
  8815                           pclatu	equ	0xFFB
  8816                           pclath	equ	0xFFA
  8817                           pcl	equ	0xFF9
  8818                           tblptru	equ	0xFF8
  8819                           tblptrh	equ	0xFF7
  8820                           tblptrl	equ	0xFF6
  8821                           tablat	equ	0xFF5
  8822                           prodh	equ	0xFF4
  8823                           prodl	equ	0xFF3
  8824                           indf0	equ	0xFEF
  8825                           postinc0	equ	0xFEE
  8826                           postdec0	equ	0xFED
  8827                           preinc0	equ	0xFEC
  8828                           plusw0	equ	0xFEB
  8829                           fsr0h	equ	0xFEA
  8830                           fsr0l	equ	0xFE9
  8831                           wreg	equ	0xFE8
  8832                           indf1	equ	0xFE7
  8833                           postinc1	equ	0xFE6
  8834                           postdec1	equ	0xFE5
  8835                           preinc1	equ	0xFE4
  8836                           plusw1	equ	0xFE3
  8837                           fsr1h	equ	0xFE2
  8838                           fsr1l	equ	0xFE1
  8839                           bsr	equ	0xFE0
  8840                           indf2	equ	0xFDF
  8841                           postinc2	equ	0xFDE
  8842                           postdec2	equ	0xFDD
  8843                           preinc2	equ	0xFDC
  8844                           plusw2	equ	0xFDB
  8845                           fsr2h	equ	0xFDA
  8846                           fsr2l	equ	0xFD9
  8847                           status	equ	0xFD8


Data Sizes:
    Strings     0
    Constant    201
    Data        18
    BSS         363
    Persistent  0
    Stack       0

Auto Spaces:
    Space          Size  Autos    Used
    COMRAM           94     41      80
    BANK0           160     10     160
    BANK1           256     10     202
    BANK2           256      0       0
    BANK3           256      0       0
    BANK4           192      0       0
    BANK5           256      0       0
    BANK6           256      0       0
    BANK7           256      0       0
    BANK8           256      0       0
    BANK9           256      0       0
    BANK10          256      0       0
    BANK11          256      0       0
    BANK12          256      0       0
    BANK13          256      0       0
    BANK14          192      0       0

Pointer List with Targets:

    USER_USB_CALLBACK_EVENT_HANDLER@pdata	PTR void  size(2) Largest target is 3775
		 -> RAM(DATA[3775]), USTATcopy(COMRAM[1]), USBActiveConfiguration(COMRAM[1]), NULL(NULL[0]), 
		 -> BDT(BIGRAMl[48]), 

    memset@dest	PTR void  size(2) Largest target is 48
		 -> USBAlternateInterface(COMRAM[2]), BDT(BIGRAMl[48]), UEP1(SFR_1[1]), 

    memset@s	PTR unsigned char  size(2) Largest target is 48
		 -> USBAlternateInterface(COMRAM[2]), BDT(BIGRAMl[48]), UEP1(SFR_1[1]), 

    memcpy@d1	PTR void  size(2) Largest target is 8
		 -> SetupPkt(BIGRAMh[8]), 

    memcpy@d	PTR unsigned char  size(2) Largest target is 8
		 -> SetupPkt(BIGRAMh[8]), 

    memcpy@s1	PTR const void  size(2) Largest target is 3775
		 -> CtrlTrfData(BIGRAMh[8]), RAM(DATA[3775]), SetupPkt(BIGRAMh[8]), 

    memcpy@s	PTR const unsigned char  size(2) Largest target is 3775
		 -> CtrlTrfData(BIGRAMh[8]), RAM(DATA[3775]), SetupPkt(BIGRAMh[8]), 

    putrsUSBUSART@data	PTR const unsigned char  size(2) Largest target is 18
		 -> buttonMessage(BANK0[18]), 

    putrsUSBUSART@pData	PTR const unsigned char  size(2) Largest target is 18
		 -> buttonMessage(BANK0[18]), 

    putUSBUSART@data	PTR unsigned char  size(2) Largest target is 64
		 -> writeBuffer(BANK1[64]), 

    getsUSBUSART@buffer	PTR unsigned char  size(2) Largest target is 64
		 -> readBuffer(BANK1[64]), 

    CDCDataInHandle	PTR void  size(2) Largest target is 3775
		 -> RAM(DATA[3775]), NULL(NULL[0]), BDT(BIGRAMl[48]), 

    CDCDataOutHandle	PTR void  size(2) Largest target is 3775
		 -> RAM(DATA[3775]), NULL(NULL[0]), BDT(BIGRAMl[48]), 

    pCDCDst.wRom	PTR const unsigned short  size(2) Largest target is 0

    pCDCDst.bRom	PTR const unsigned char  size(2) Largest target is 0

    pCDCDst.wRam	PTR unsigned short  size(2) Largest target is 0

    pCDCDst.bRam	PTR unsigned char  size(2) Largest target is 0

    S2091_POINTER$wRom	PTR const unsigned short  size(2) Largest target is 0

    pCDCSrc.wRom	PTR const unsigned short  size(2) Largest target is 0

    S2091_POINTER$bRom	PTR const unsigned char  size(2) Largest target is 0

    pCDCSrc.bRom	PTR const unsigned char  size(2) Largest target is 0

    S2091_POINTER$wRam	PTR unsigned short  size(2) Largest target is 0

    pCDCSrc.wRam	PTR unsigned short  size(2) Largest target is 0

    S2091_POINTER$bRam	PTR unsigned char  size(2) Largest target is 0

    pCDCSrc.bRam	PTR unsigned char  size(2) Largest target is 0

    USBStdFeatureReqHandler@pUEP	PTR unsigned char  size(2) Largest target is 1
		 -> UEP0(SFR_1[1]), 

    USBStdFeatureReqHandler@p	PTR struct __BDT size(2) Largest target is 3775
		 -> RAM(DATA[3775]), NULL(NULL[0]), BDT(BIGRAMl[48]), 

    sp__memcpy	PTR void  size(2) Largest target is 8
		 -> SetupPkt(BIGRAMh[8]), 

    USBStdGetStatusHandler@p	PTR struct __BDT size(2) Largest target is 3775
		 -> RAM(DATA[3775]), NULL(NULL[0]), BDT(BIGRAMl[48]), 

    USB_SD_Ptr	const PTR const unsigned char [3] size(2) Largest target is 52
		 -> sd002(CODE[52]), sd001(CODE[52]), sd000(CODE[4]), 

    USB_CD_Ptr	const PTR const unsigned char [1] size(2) Largest target is 67
		 -> configDescriptor1(CODE[67]), 

    pDst	PTR volatile unsigned char  size(2) Largest target is 8
		 -> CtrlTrfData(BIGRAMh[8]), NULL(NULL[0]), 

    USBConfigureEndpoint@handle	PTR volatile struct __BDT size(2) Largest target is 48
		 -> BDT(BIGRAMl[48]), 

    pBDTEntryEP0OutCurrent	PTR volatile struct __BDT size(2) Largest target is 48
		 -> NULL(NULL[0]), BDT(BIGRAMl[48]), 

    pBDTEntryEP0OutNext	PTR volatile struct __BDT size(2) Largest target is 3775
		 -> RAM(DATA[3775]), NULL(NULL[0]), BDT(BIGRAMl[48]), 

    USBTransferOnePacket@data	PTR unsigned char  size(2) Largest target is 64
		 -> cdc_data_tx(BANK1[64]), cdc_data_rx(BANK0[64]), NULL(NULL[0]), 

    sp__USBTransferOnePacket	PTR void  size(2) Largest target is 3775
		 -> RAM(DATA[3775]), NULL(NULL[0]), BDT(BIGRAMl[48]), 

    USBTransferOnePacket@handle	PTR volatile struct __BDT size(2) Largest target is 3775
		 -> RAM(DATA[3775]), NULL(NULL[0]), BDT(BIGRAMl[48]), 

    USBEnableEndpoint@p	PTR unsigned char  size(2) Largest target is 1
		 -> UEP0(SFR_1[1]), 

    pBDTEntryOut	PTR volatile struct __BDT[3] size(2) Largest target is 3775
		 -> RAM(DATA[3775]), NULL(NULL[0]), BDT(BIGRAMl[48]), 

    pBDTEntryIn	PTR volatile struct __BDT[3] size(2) Largest target is 3775
		 -> RAM(DATA[3775]), NULL(NULL[0]), BDT(BIGRAMl[48]), 

    S358$pFunc	PTR FTN()void  size(2) Largest target is 0
		 -> NULL(NULL[0]), 

    outPipes.pFunc	PTR FTN()void  size(2) Largest target is 0
		 -> NULL(NULL[0]), 

    S348$wRam	PTR unsigned short  size(2) Largest target is 0

    outPipes.pDst.wRam	PTR unsigned short  size(2) Largest target is 0

    S348$bRam	PTR unsigned char  size(2) Largest target is 0

    outPipes.pDst.bRam	PTR unsigned char  size(2) Largest target is 0

    S324$wRom	PTR const unsigned short  size(2) Largest target is 0

    inPipes.pSrc.wRom	PTR const unsigned short  size(2) Largest target is 0

    S324$wRam	PTR unsigned short  size(2) Largest target is 0

    inPipes.pSrc.wRam	PTR unsigned short  size(2) Largest target is 0

    S324$bRom	PTR const unsigned char  size(2) Largest target is 0

    inPipes.pSrc.bRom	PTR const unsigned char  size(2) Largest target is 0

    S324$bRam	PTR unsigned char  size(2) Largest target is 0

    inPipes.pSrc.bRam	PTR unsigned char  size(2) Largest target is 0

    sp__memset	PTR void  size(2) Largest target is 48
		 -> USBAlternateInterface(COMRAM[2]), BDT(BIGRAMl[48]), UEP1(SFR_1[1]), 


Critical Paths under _main in COMRAM

    None.

Critical Paths under _SYS_InterruptHigh in COMRAM

    _SYS_InterruptHigh->_USBDeviceTasks
    _USBDeviceTasks->_USBCtrlEPService
    i2_USBDeviceInit->i2_memset
    _USBWakeFromSuspend->_USER_USB_CALLBACK_EVENT_HANDLER
    _USBSuspend->_USER_USB_CALLBACK_EVENT_HANDLER
    _USBCtrlTrfSetupHandler->_USBCheckStdRequest
    _USBCtrlEPAllowDataStage->_USBCtrlTrfTxService
    _USBCheckStdRequest->_USBStdFeatureReqHandler
    _USBStdSetCfgHandler->_USER_USB_CALLBACK_EVENT_HANDLER
    _USBStdFeatureReqHandler->_USER_USB_CALLBACK_EVENT_HANDLER
    i2_SYSTEM_Initialize->i2_BUTTON_Enable
    i2_SYSTEM_Initialize->i2_LED_Enable
    _CDCInitEP->_USBEnableEndpoint
    _USBEnableEndpoint->_USBConfigureEndpoint
    _APP_LEDUpdateUSBStatus->_LED_Off
    _APP_LEDUpdateUSBStatus->_LED_On
    _USBCtrlTrfOutHandler->_USBCtrlTrfRxService
    _USBCtrlTrfInHandler->_USBCtrlTrfTxService

Critical Paths under _main in BANK0

    _main->_SYSTEM_Initialize
    _USBDeviceInit->_memset
    _SYSTEM_Initialize->_BUTTON_Enable
    _SYSTEM_Initialize->_LED_Enable
    _APP_DeviceCDCBasicDemoTasks->_CDCTxService
    _getsUSBUSART->_USBTransferOnePacket
    _CDCTxService->_USBTransferOnePacket

Critical Paths under _SYS_InterruptHigh in BANK0

    None.

Critical Paths under _main in BANK1

    _main->_APP_DeviceCDCBasicDemoTasks
    _USBDeviceInit->_memset
    _APP_DeviceCDCBasicDemoTasks->_getsUSBUSART
    _getsUSBUSART->_USBTransferOnePacket
    _CDCTxService->_USBTransferOnePacket

Critical Paths under _SYS_InterruptHigh in BANK1

    None.

Critical Paths under _main in BANK2

    None.

Critical Paths under _SYS_InterruptHigh in BANK2

    None.

Critical Paths under _main in BANK3

    None.

Critical Paths under _SYS_InterruptHigh in BANK3

    None.

Critical Paths under _main in BANK4

    None.

Critical Paths under _SYS_InterruptHigh in BANK4

    None.

Critical Paths under _main in BANK5

    None.

Critical Paths under _SYS_InterruptHigh in BANK5

    None.

Critical Paths under _main in BANK6

    None.

Critical Paths under _SYS_InterruptHigh in BANK6

    None.

Critical Paths under _main in BANK7

    None.

Critical Paths under _SYS_InterruptHigh in BANK7

    None.

Critical Paths under _main in BANK8

    None.

Critical Paths under _SYS_InterruptHigh in BANK8

    None.

Critical Paths under _main in BANK9

    None.

Critical Paths under _SYS_InterruptHigh in BANK9

    None.

Critical Paths under _main in BANK10

    None.

Critical Paths under _SYS_InterruptHigh in BANK10

    None.

Critical Paths under _main in BANK11

    None.

Critical Paths under _SYS_InterruptHigh in BANK11

    None.

Critical Paths under _main in BANK12

    None.

Critical Paths under _SYS_InterruptHigh in BANK12

    None.

Critical Paths under _main in BANK13

    None.

Critical Paths under _SYS_InterruptHigh in BANK13

    None.

Critical Paths under _main in BANK14

    None.

Critical Paths under _SYS_InterruptHigh in BANK14

    None.

Call Graph Tables:

 ---------------------------------------------------------------------------------
 (Depth) Function   	        Calls       Base Space   Used Autos Params    Refs
 ---------------------------------------------------------------------------------
 (0) _main                                                 0     0      0    7691
        _APP_DeviceCDCBasicDemoTasks
                  _SYSTEM_Initialize
                    _USBDeviceAttach
                      _USBDeviceInit
 ---------------------------------------------------------------------------------
 (1) _USBDeviceInit                                        1     1      0    2241
                                              8 BANK0      1     1      0
                             _memset
 ---------------------------------------------------------------------------------
 (2) _memset                                              12     6      6    1950
                                              0 BANK0      8     2      6
                                              0 BANK1      4     4      0
 ---------------------------------------------------------------------------------
 (1) _USBDeviceAttach                                      0     0      0       0
 ---------------------------------------------------------------------------------
 (1) _SYSTEM_Initialize                                    7     7      0     112
                                              3 BANK0      7     7      0
                      _BUTTON_Enable
                         _LED_Enable
 ---------------------------------------------------------------------------------
 (2) _LED_Enable                                           3     3      0      22
                                              0 BANK0      3     3      0
 ---------------------------------------------------------------------------------
 (2) _BUTTON_Enable                                        3     3      0      22
                                              0 BANK0      3     3      0
 ---------------------------------------------------------------------------------
 (1) _APP_DeviceCDCBasicDemoTasks                          4     4      0    5338
                                              6 BANK1      4     4      0
                   _BUTTON_IsPressed
                       _CDCTxService
                       _getsUSBUSART
                        _putUSBUSART
                      _putrsUSBUSART
 ---------------------------------------------------------------------------------
 (2) _putrsUSBUSART                                        5     3      2     268
                                              0 BANK0      5     3      2
 ---------------------------------------------------------------------------------
 (2) _putUSBUSART                                          3     0      3     270
                                              0 BANK0      3     0      3
 ---------------------------------------------------------------------------------
 (2) _getsUSBUSART                                         4     1      3    2292
                                              8 BANK0      1     1      0
                                              3 BANK1      3     0      3
               _USBTransferOnePacket
 ---------------------------------------------------------------------------------
 (2) _CDCTxService                                         2     2      0    2189
                                              8 BANK0      2     2      0
               _USBTransferOnePacket
 ---------------------------------------------------------------------------------
 (3) _USBTransferOnePacket                                11     7      4    1988
                                              0 BANK0      8     4      4
                                              0 BANK1      3     3      0
 ---------------------------------------------------------------------------------
 (2) _BUTTON_IsPressed                                     3     3      0      31
                                              0 BANK0      3     3      0
 ---------------------------------------------------------------------------------
 Estimated maximum stack depth 3
 ---------------------------------------------------------------------------------
 (Depth) Function   	        Calls       Base Space   Used Autos Params    Refs
 ---------------------------------------------------------------------------------
 (4) _SYS_InterruptHigh                                   10    10      0   31893
                                             31 COMRAM    10    10      0
                     _USBDeviceTasks
 ---------------------------------------------------------------------------------
 (5) _USBDeviceTasks                                       1     1      0   31893
                                             30 COMRAM     1     1      0
          _USBCtrlEPAllowStatusStage
                   _USBCtrlEPService
      _USBIncrement1msInternalTimers
                    _USBStallHandler
                         _USBSuspend
                 _USBWakeFromSuspend
    _USER_USB_CALLBACK_EVENT_HANDLER
                    i2_USBDeviceInit
 ---------------------------------------------------------------------------------
 (6) i2_USBDeviceInit                                      1     1      0    1233
                                             12 COMRAM     1     1      0
                           i2_memset
 ---------------------------------------------------------------------------------
 (6) _USBWakeFromSuspend                                   0     0      0    4035
    _USER_USB_CALLBACK_EVENT_HANDLER
 ---------------------------------------------------------------------------------
 (6) _USBSuspend                                           0     0      0    4035
    _USER_USB_CALLBACK_EVENT_HANDLER
 ---------------------------------------------------------------------------------
 (6) _USBStallHandler                                      1     1      0       0
                                              0 COMRAM     1     1      0
 ---------------------------------------------------------------------------------
 (6) _USBIncrement1msInternalTimers                        0     0      0       0
 ---------------------------------------------------------------------------------
 (6) _USBCtrlEPService                                     1     1      0   18509
                                             29 COMRAM     1     1      0
                _USBCtrlTrfInHandler
               _USBCtrlTrfOutHandler
             _USBCtrlTrfSetupHandler
                             _memcpy
 ---------------------------------------------------------------------------------
 (7) _memcpy                                              11     5      6     410
                                              0 COMRAM    11     5      6
 ---------------------------------------------------------------------------------
 (7) _USBCtrlTrfSetupHandler                               0     0      0   17870
                 _USBCheckStdRequest
           _USBCtrlEPServiceComplete
    _USER_USB_CALLBACK_EVENT_HANDLER
 ---------------------------------------------------------------------------------
 (8) _USBCtrlEPServiceComplete                             0     0      0      92
            _USBCtrlEPAllowDataStage
          _USBCtrlEPAllowStatusStage
 ---------------------------------------------------------------------------------
 (9) _USBCtrlEPAllowDataStage                              0     0      0      92
                _USBCtrlTrfTxService
 ---------------------------------------------------------------------------------
 (8) _USBCheckStdRequest                                   2     2      0   13743
                                             27 COMRAM     2     2      0
            _USBStdFeatureReqHandler
                _USBStdGetDscHandler
             _USBStdGetStatusHandler
                _USBStdSetCfgHandler
    _USER_USB_CALLBACK_EVENT_HANDLER
 ---------------------------------------------------------------------------------
 (9) _USBStdSetCfgHandler                                  1     1      0    5156
                                             20 COMRAM     1     1      0
    _USER_USB_CALLBACK_EVENT_HANDLER
                           i2_memset
 ---------------------------------------------------------------------------------
 (7) i2_memset                                            12     6      6    1031
                                              0 COMRAM    12     6      6
 ---------------------------------------------------------------------------------
 (9) _USBStdGetStatusHandler                               4     4      0      46
                                              0 COMRAM     4     4      0
 ---------------------------------------------------------------------------------
 (9) _USBStdGetDscHandler                                  2     2      0       0
                                              0 COMRAM     2     2      0
 ---------------------------------------------------------------------------------
 (9) _USBStdFeatureReqHandler                              7     7      0    4506
                                             20 COMRAM     7     7      0
    _USER_USB_CALLBACK_EVENT_HANDLER
 ---------------------------------------------------------------------------------
 (6) _USER_USB_CALLBACK_EVENT_HANDLER                      8     2      6    4035
                                             12 COMRAM     8     2      6
   _APP_DeviceCDCBasicDemoInitialize
             _APP_LEDUpdateUSBStatus
                          _CDCInitEP
                 _USBCheckCDCRequest
                i2_SYSTEM_Initialize
 ---------------------------------------------------------------------------------
 (7) i2_SYSTEM_Initialize                                  7     7      0     112
                                              3 COMRAM     7     7      0
                    i2_BUTTON_Enable
                       i2_LED_Enable
 ---------------------------------------------------------------------------------
 (8) i2_LED_Enable                                         3     3      0      22
                                              0 COMRAM     3     3      0
 ---------------------------------------------------------------------------------
 (8) i2_BUTTON_Enable                                      3     3      0      22
                                              0 COMRAM     3     3      0
 ---------------------------------------------------------------------------------
 (7) _USBCheckCDCRequest                                   2     2      0       0
                                              0 COMRAM     2     2      0
 ---------------------------------------------------------------------------------
 (7) _CDCInitEP                                            0     0      0    1187
                  _USBEnableEndpoint
             i2_USBTransferOnePacket
 ---------------------------------------------------------------------------------
 (8) i2_USBTransferOnePacket                              11     7      4     454
                                              0 COMRAM    11     7      4
 ---------------------------------------------------------------------------------
 (8) _USBEnableEndpoint                                    4     3      1     733
                                              8 COMRAM     4     3      1
               _USBConfigureEndpoint
 ---------------------------------------------------------------------------------
 (9) _USBConfigureEndpoint                                 8     7      1     400
                                              0 COMRAM     8     7      1
 ---------------------------------------------------------------------------------
 (7) _APP_LEDUpdateUSBStatus                               2     2      0      44
                                              3 COMRAM     2     2      0
                            _LED_Off
                             _LED_On
 ---------------------------------------------------------------------------------
 (8) _LED_On                                               3     3      0      22
                                              0 COMRAM     3     3      0
 ---------------------------------------------------------------------------------
 (8) _LED_Off                                              3     3      0      22
                                              0 COMRAM     3     3      0
 ---------------------------------------------------------------------------------
 (7) _APP_DeviceCDCBasicDemoInitialize                     0     0      0       0
 ---------------------------------------------------------------------------------
 (7) _USBCtrlTrfOutHandler                                 0     0      0     114
                _USBCtrlTrfRxService
 ---------------------------------------------------------------------------------
 (8) _USBCtrlTrfRxService                                  2     2      0     114
                                              0 COMRAM     2     2      0
          _USBCtrlEPAllowStatusStage
 ---------------------------------------------------------------------------------
 (9) _USBCtrlEPAllowStatusStage                            0     0      0       0
 ---------------------------------------------------------------------------------
 (7) _USBCtrlTrfInHandler                                  1     1      0     115
                                              1 COMRAM     1     1      0
                _USBCtrlTrfTxService
 ---------------------------------------------------------------------------------
 (10) _USBCtrlTrfTxService                                 1     1      0      92
                                              0 COMRAM     1     1      0
 ---------------------------------------------------------------------------------
 Estimated maximum stack depth 10
 ---------------------------------------------------------------------------------

 Call Graph Graphs:

 _main (ROOT)
   _APP_DeviceCDCBasicDemoTasks
     _BUTTON_IsPressed
     _CDCTxService
       _USBTransferOnePacket
     _getsUSBUSART
       _USBTransferOnePacket
     _putUSBUSART
     _putrsUSBUSART
   _SYSTEM_Initialize
     _BUTTON_Enable
     _LED_Enable
   _USBDeviceAttach
   _USBDeviceInit
     _memset

 _SYS_InterruptHigh (ROOT)
   _USBDeviceTasks
     _USBCtrlEPAllowStatusStage
     _USBCtrlEPService
       _USBCtrlTrfInHandler
         _USBCtrlTrfTxService
       _USBCtrlTrfOutHandler
         _USBCtrlTrfRxService
           _USBCtrlEPAllowStatusStage
       _USBCtrlTrfSetupHandler
         _USBCheckStdRequest
           _USBStdFeatureReqHandler
             _USER_USB_CALLBACK_EVENT_HANDLER
               _APP_DeviceCDCBasicDemoInitialize
               _APP_LEDUpdateUSBStatus
                 _LED_Off
                 _LED_On
               _CDCInitEP
                 _USBEnableEndpoint
                   _USBConfigureEndpoint
                 i2_USBTransferOnePacket
               _USBCheckCDCRequest
               i2_SYSTEM_Initialize
                 i2_BUTTON_Enable
                 i2_LED_Enable
           _USBStdGetDscHandler
           _USBStdGetStatusHandler
           _USBStdSetCfgHandler
             _USER_USB_CALLBACK_EVENT_HANDLER
               _APP_DeviceCDCBasicDemoInitialize
               _APP_LEDUpdateUSBStatus
                 _LED_Off
                 _LED_On
               _CDCInitEP
                 _USBEnableEndpoint
                   _USBConfigureEndpoint
                 i2_USBTransferOnePacket
               _USBCheckCDCRequest
               i2_SYSTEM_Initialize
                 i2_BUTTON_Enable
                 i2_LED_Enable
             i2_memset
           _USER_USB_CALLBACK_EVENT_HANDLER
             _APP_DeviceCDCBasicDemoInitialize
             _APP_LEDUpdateUSBStatus
               _LED_Off
               _LED_On
             _CDCInitEP
               _USBEnableEndpoint
                 _USBConfigureEndpoint
               i2_USBTransferOnePacket
             _USBCheckCDCRequest
             i2_SYSTEM_Initialize
               i2_BUTTON_Enable
               i2_LED_Enable
         _USBCtrlEPServiceComplete
           _USBCtrlEPAllowDataStage
             _USBCtrlTrfTxService
           _USBCtrlEPAllowStatusStage
         _USER_USB_CALLBACK_EVENT_HANDLER
           _APP_DeviceCDCBasicDemoInitialize
           _APP_LEDUpdateUSBStatus
             _LED_Off
             _LED_On
           _CDCInitEP
             _USBEnableEndpoint
               _USBConfigureEndpoint
             i2_USBTransferOnePacket
           _USBCheckCDCRequest
           i2_SYSTEM_Initialize
             i2_BUTTON_Enable
             i2_LED_Enable
       _memcpy
     _USBIncrement1msInternalTimers
     _USBStallHandler
     _USBSuspend
       _USER_USB_CALLBACK_EVENT_HANDLER
         _APP_DeviceCDCBasicDemoInitialize
         _APP_LEDUpdateUSBStatus
           _LED_Off
           _LED_On
         _CDCInitEP
           _USBEnableEndpoint
             _USBConfigureEndpoint
           i2_USBTransferOnePacket
         _USBCheckCDCRequest
         i2_SYSTEM_Initialize
           i2_BUTTON_Enable
           i2_LED_Enable
     _USBWakeFromSuspend
       _USER_USB_CALLBACK_EVENT_HANDLER
         _APP_DeviceCDCBasicDemoInitialize
         _APP_LEDUpdateUSBStatus
           _LED_Off
           _LED_On
         _CDCInitEP
           _USBEnableEndpoint
             _USBConfigureEndpoint
           i2_USBTransferOnePacket
         _USBCheckCDCRequest
         i2_SYSTEM_Initialize
           i2_BUTTON_Enable
           i2_LED_Enable
     _USER_USB_CALLBACK_EVENT_HANDLER
       _APP_DeviceCDCBasicDemoInitialize
       _APP_LEDUpdateUSBStatus
         _LED_Off
         _LED_On
       _CDCInitEP
         _USBEnableEndpoint
           _USBConfigureEndpoint
         i2_USBTransferOnePacket
       _USBCheckCDCRequest
       i2_SYSTEM_Initialize
         i2_BUTTON_Enable
         i2_LED_Enable
     i2_USBDeviceInit
       i2_memset

 Address spaces:
Name               Size   Autos  Total    Cost      Usage
BIGRAMh            A80      0       0      35        0.0%
BIGRAMl            3FF      0       0      36        0.0%
BITBANK13          100      0       0      31        0.0%
BANK13             100      0       0      32        0.0%
BITBANK12          100      0       0      29        0.0%
BANK12             100      0       0      30        0.0%
BITBANK11          100      0       0      27        0.0%
BANK11             100      0       0      28        0.0%
BITBANK10          100      0       0      25        0.0%
BANK10             100      0       0      26        0.0%
BITBANK9           100      0       0      23        0.0%
BANK9              100      0       0      24        0.0%
BITBANK8           100      0       0      21        0.0%
BANK8              100      0       0      22        0.0%
BITBANK7           100      0       0      19        0.0%
BANK7              100      0       0      20        0.0%
BITBANK6           100      0       0      17        0.0%
BANK6              100      0       0      18        0.0%
BITBANK5           100      0       0      15        0.0%
BANK5              100      0       0      16        0.0%
BITBANK3           100      0       0      11        0.0%
BANK3              100      0       0      12        0.0%
BITBANK2           100      0       0       9        0.0%
BANK2              100      0       0      10        0.0%
BITBANK1           100      0       0       6        0.0%
BANK1              100      A      CA       7       78.9%
BITBANK14           C0      0       0      33        0.0%
BANK14              C0      0       0      34        0.0%
BITBANK4            C0      0       0      13        0.0%
BANK4               C0      0       0      14        0.0%
BITBANK0            A0      0       0       4        0.0%
BANK0               A0      A      A0       5      100.0%
BITCOMRAM           5E      0       0       0        0.0%
COMRAM              5E     29      50       1       85.1%
BITSFR_2             0      0       0     200        0.0%
SFR_2                0      0       0     200        0.0%
BITSFR_1             0      0       0     200        0.0%
SFR_1                0      0       0     200        0.0%
BITSFR               0      0       0     200        0.0%
SFR                  0      0       0     200        0.0%
STACK                0      0       0       2        0.0%
NULL                 0      0       0       0        0.0%
ABS                  0      0     1BA       8        0.0%
DATA                 0      0     1BA       3        0.0%
CODE                 0      0       0       0        0.0%


Microchip Technology PIC18 Macro Assembler V2.05 build -831301201 
Symbol Table                                                                                   Tue Jun 11 21:18:56 2019

                                 _USB_SD_Ptr 0F01                                           l10 2C50  
                                         l17 2DB0                                           l60 2C86  
                                         l62 2C8A                                  ?_LED_Enable 0001  
                              _USBDeviceInit 1614                           __size_of_CDCInitEP 0064  
                               __CFG_CP0$OFF 000000         USER_USB_CALLBACK_EVENT_HANDLER@event 000D  
       USER_USB_CALLBACK_EVENT_HANDLER@pdata 000F                  __end_of_USBStdGetDscHandler 1614  
                                        l264 2D10                                          l265 2D0E  
                                        l564 1AF2                                          l569 1B3A  
                                        l674 1E22                                          l668 1DEE  
                                        _BDT 000400                                          _UIE 000F36  
                                        _UIR 000F62                       _APP_LEDUpdateUSBStatus 27A8  
                                 _USBSuspend 2DD8                         USBStdSetCfgHandler@i 0015  
                                        prod 000FF3                                          wreg 000FE8  
                             _USBDeviceTasks 13A2                               _USBDeviceState 0045  
                              _BUTTON_Enable 2DAA                        ??_USBCtrlTrfRxService 0001  
                   __size_ofi2_USBDeviceInit 0134                               ??_getsUSBUSART 00FE  
                   USBEnableEndpoint@options 0009                              __end_of_LED_Off 2DAA  
                 USBConfigureEndpoint@handle 0007                                         l5211 1A80  
                                       l5301 2582                                         l5303 258A  
                                       l5311 25DA                                         l5225 2C60  
                                       l5401 1B7E                                         l5241 2DB8  
                                       l5219 2C5C                                         l5307 25B0  
                                       l5251 2C8E                                         l5421 1BD6  
                                       l5191 19CC                                         l5327 2E72  
                                       l5335 2B4A                                         l5417 1BB4  
                                       l5409 1B9C                                         l5281 1344  
                                       l5441 1656                                         l5419 1BB8  
                                       l5371 1AFC                                         l5339 2B58  
                                       l5523 297A                                         l5515 2952  
                                       l5283 137E                                         l5275 1300  
                                       l5603 2EA2                                         l5365 1AE6  
                                       l5525 2986                                         l5269 1288  
                                       l5453 1682                                         l5199 19FA  
                                       l5391 1B58                                         l5383 1B3E  
                                       l5551 1E1C                                         l5519 295C  
                                       l5377 1B28                                         l5529 2998  
                                       l5289 1396                                         l5563 1E84  
                                       l5565 1EAE                                         l5557 1E44  
                                       l5573 1ED0                                         l5469 16B2  
                                       l5399 1B76                                         l5559 1E62  
                                       l5567 1EB0                        ??i2_SYSTEM_Initialize 0004  
                                       u3730 2B72                                         u3590 2C58  
                                       u3830 1BA2                                         u3670 2558  
                                       i2l30 2D52                                         i2l17 2E0A  
                                       i2l36 2D7E                                         i2l28 2D4E  
                                       i2l60 2D1E                                         i2l38 2D82  
                                       i2l62 2D22                        ??_USBCtrlTrfTxService 0001  
                                       _UCFG 000F39                                         _UEP0 000F26  
                                       _UEP1 000F27                                         _UEIE 000F37  
                                       _UEIR 000F63                                         _UCON 000F65  
                            _CDCDataInHandle 0094       USBStdFeatureReqHandler@current_ep_data 0019  
                                       _pDst 0030                                         _main 2E94  
                   ??i2_USBTransferOnePacket 0005                                         fsr1h 000FE2  
                                       fsr2h 000FDA                                         indf1 000FE7  
                                _BaudRateGen 0084                                         indf2 000FDF  
                                       fsr1l 000FE1                                         fsr2l 000FD9  
                            _USBDeviceAttach 2CE8                                         btemp 0051  
                              __CFG_T1DIG$ON 000000                                         prodh 000FF4  
                                       prodl 000FF3                                         start 0062  
                   __size_ofi2_BUTTON_Enable 002A                                __CFG_IESO$OFF 000000  
                 __end_of_USBCheckStdRequest 1FBA                       ??_USBCtrlTrfOutHandler 0003  
                               ___param_bank 000000                    ??_USBStdFeatureReqHandler 0015  
                     __size_of_putrsUSBUSART 004C                     ??_USBStdGetStatusHandler 0001  
                             ?_USBDeviceInit 0001                                __CFG_PLLDIV$3 000000  
                                _writeBuffer 0100                                        ?_main 0001  
          __size_of_USBCtrlEPServiceComplete 00E0                       __end_of_USBDeviceTasks 14DC  
                  ?_USBCtrlEPServiceComplete 0001                                        i2l215 13D0  
                                      i2l401 23B6                                        i2l225 146A  
                                      i2l227 1474                                        i2l430 0FF4  
                                      i2l415 1EE6                                        i2l352 23CE  
                                      i2l424 1F34                                        i2l441 1124  
                                      i2l355 246C                                        i2l516 24CE  
                                      i2l356 23DE                                        i2l357 23E4  
                                      i2l518 2504                                        i2l366 2BCA  
                                      i2l289 2032                                        _UADDR 000F38  
                                      _USTAT 000F64           __size_of_USBCtrlEPAllowStatusStage 00C4  
                             __CFG_FCMEN$OFF 000000                               ?_BUTTON_Enable 0001  
            __end_of_USBCtrlEPAllowDataStage 267E                                        _sd000 0FC6  
                                      _sd001 0F80                                        _sd002 0F4C  
             ?_USBIncrement1msInternalTimers 0001                    __size_of_BUTTON_IsPressed 0036  
                                      tablat 000FF5                          __size_of_LED_Enable 0034  
                                      plusw2 000FDB                            __end_of_CDCInitEP 2A90  
                                      ttemp5 0052                                        ttemp6 0055  
                                      ttemp7 0059                                        status 000FD8  
                          __CFG_DSWDTPS$8192 000000                                        wtemp8 0052  
                           __end_ofi2_memset 19B0                      __CFG_DSWDTOSC$INTOSCREF 000000  
                            putUSBUSART@data 00F6                 __size_of_USBStdSetCfgHandler 00D4  
                            __initialization 2AEC                                 __end_of_main 2EA8  
                      _control_signal_bitmap 0036                               __CFG_OSC$HSPLL 000000  
                  __size_of_USBCtrlEPService 0096                                       ??_main 0100  
                              __activetblptr 000002                              ?_USBDeviceTasks 0001  
                                ?_USBSuspend 0001                                    ??_LED_Off 0001  
                               _cdc_mem_type 0099                                _putrsUSBUSART 2B3E  
                    __end_of_USBDeviceAttach 2D1A                             _CDCDataOutHandle 0096  
                            getsUSBUSART@len 01C5                       SYSTEM_Initialize@state 00FF  
                      __size_of_CDCTxService 0110                                       i2l4001 1C26  
                                     i2l4013 1C80                                       _LED_On 2D4A  
                                     i2l4017 1C9A                                       i2l4105 2BE0  
                                     i2l4113 2C00                                       i2l3403 2C22  
                                     i2l4051 1F1C                                       i2l4035 1EF0  
                                     i2l4061 1F4C                                       i2l4037 1EF6  
                             __CFG_WDTEN$OFF 000000                                       i2l3407 2C30  
                                     i2l3415 2E12                                       i2l4047 1F10  
                                     i2l4039 1EFC                                       i2l4311 2704  
                                     i2l4153 2AE6                                       i2l4145 2A9E  
                                     i2l3425 2D26                                       i2l6001 2912  
                                     i2l4049 1F16                                       i2l4065 1F6A  
                                     i2l3443 1D24                                       i2l3435 1CFA  
                                     i2l6003 2946                                       i2l4181 237C  
                                     i2l3541 27FC                                       i2l3533 27D6  
                                     i2l3525 27B4                                       i2l3373 2776  
                                     i2l4309 26FE                                       i2l4253 2CDC  
                                     i2l3623 2198                                       i2l4167 2336  
                                     i2l3383 2D56                                       i2l3551 281C  
                                     i2l3455 1DA2                                       i2l4255 2CDE  
                                     i2l3633 21BE                                       i2l3641 21F4  
                                     i2l4169 233A                                       i2l3393 2D86  
                                     i2l3545 280E                                       i2l3537 27EC  
                                     i2l3553 2834                                       i2l3529 27C4  
                                     i2l3643 21FC                                       i2l3651 2232  
                                     i2l3619 218E                                       i2l4187 239C  
                                     i2l3491 24EC                                       i2l3483 24C0  
                                     i2l3475 24A8                                       i2l3571 29EA  
                                     i2l3563 29C2                                       i2l3803 15DE  
                                     i2l4291 2BC8                                       i2l3573 29F6  
                                     i2l3901 110C                                       i2l3805 15E6  
                                     i2l3733 264A                                       i2l3567 29CC  
                                     i2l3591 28EA                                       i2l3903 113E  
                                     i2l3663 18C2                                       i2l4631 13E6  
                                     i2l3577 2A08                                       i2l3585 28CC  
                                     i2l3913 118A                                       i2l3809 15EE  
                                     i2l3753 20DC                                       i2l3729 262E  
                                     i2l4465 1788                                       i2l4617 13C8  
                                     i2l4609 13B8                                       i2l3499 250E  
                                     i2l3595 28F4                                       i2l3587 28D2  
                                     i2l3931 1216                                       i2l3923 11C8  
                                     i2l3915 1196                                       i2l3683 19A6  
                                     i2l3675 195E                                       i2l4643 1418  
                                     i2l3589 28DE                                       i2l3861 0FF0  
                                     i2l3829 240C                                       i2l3677 1990  
                                     i2l3669 1926                                       i2l4493 17E4  
                                     i2l4477 17B4                                       i2l4661 1438  
                                     i2l4637 13F2                                       i2l3599 28FA  
                                     i2l3783 14EE                                       i2l3839 2448  
                                     i2l3775 214C                                       i2l4655 142C  
                                     i2l3929 120A                                       i2l3699 2282  
                                     i2l3891 10C4                                       i2l3795 1588  
                                     i2l3787 1502                                       i2l3947 1FDC  
                                     i2l3885 10A2                                       i2l3877 105C  
                                     i2l3797 1590                                       i2l4669 1460  
                                     i2l3959 2044                                       i2l3967 2058  
                                     i2l4695 14B4                                       i2l4697 14D0  
                                     i2l4689 1498                                       i2l3995 1C08  
                                     _OSCCON 000FD3                                CDCTxService@i 00FE  
                             __CFG_WPCFG$OFF 000000                     i2USBTransferOnePacket@ep 0009  
                          ??i2_USBDeviceInit 000D              __size_ofi2_USBTransferOnePacket 0102  
                             __CFG_WPDIS$OFF 000000                            _shortPacketStatus 0044  
                             __CFG_XINST$OFF 000000                              USBDeviceTasks@i 001F  
                USBStdFeatureReqHandler@pUEP 0017                     USBTransferOnePacket@data 00F7  
                 USBCtrlTrfInHandler@lastDTS 0002                              ??_USBDeviceInit 00FE  
                               ?_putUSBUSART 00F6                               __CFG_STVREN$ON 000000  
                       __end_of_getsUSBUSART 25E0  i2SYSTEM_Initialize@pll_startup_counter_2775 0008  
  SYSTEM_Initialize@pll_startup_counter_2775 00FD                            ??i2_BUTTON_Enable 0001  
                          _USBEnableEndpoint 2C12              __size_of_USBStdGetStatusHandler 00C0  
                                     _memcpy 2BCE                                ?i2_LED_Enable 0001  
                                     _memset 123A                                       clear_0 2B12  
                                     clear_1 2B1E                                       clear_2 2B2A  
                         ?_USBEnableEndpoint 0009                __size_of_USBTransferOnePacket 011A  
                            ??_BUTTON_Enable 00F6                                 _CDCTxService 1ACA  
                               __mediumconst 0000                                       tblptrh 000FF7  
                                     tblptrl 000FF6                                       tblptru 000FF8  
                             ?_putrsUSBUSART 00F6                          ??_USBEnableEndpoint 000A  
                                _CtrlTrfData 000438                 ?_APP_DeviceCDCBasicDemoTasks 0001  
                       _controlTransferState 0043                            _SYSTEM_Initialize 294C  
                                 __accesstop 0060                      __end_of__initialization 2B30  
                         ?_SYSTEM_Initialize 0001                                ___rparam_used 000001  
                   __size_of_USBStallHandler 0044                          __size_of_USBSuspend 002E  
                             __pcstackCOMRAM 0001                    __end_of_USBEnableEndpoint 2C4A  
                              __end_of_sd000 0FCA                                __end_of_sd001 0FB4  
                              __end_of_sd002 0F80                                 __pidataBANK0 2EA8  
                        ??_SYSTEM_Initialize 00F9                                    LED_On@led 0003  
           __size_of_USBCtrlEPAllowDataStage 009E                               ??i2_LED_Enable 0001  
                               ??_LED_Enable 00F6                __size_of_USBConfigureEndpoint 0094  
                __end_of_USBCtrlTrfInHandler 23C2                      ?_APP_LEDUpdateUSBStatus 0001  
                     i2_USBTransferOnePacket 1CE4                                   _cdc_notice 0060  
                                  ?i2_memset 0001                                   _cdc_rx_len 009B  
                                 _cdc_tx_len 009A                                _buttonMessage 00E4  
                   ??_USBCtrlTrfSetupHandler 001E                      _USBTicksSinceSuspendEnd 0038  
                           ?_USBDeviceAttach 0001                    __end_of_SYSTEM_Initialize 29BE  
                           _BUTTON_IsPressed 2C4A                       _USBStdGetStatusHandler 23C2  
                              _buttonPressed 0098                                   __pbssBANK0 0060  
                                 __pbssBANK1 0100                                      ?_LED_On 0001  
              ??_APP_DeviceCDCBasicDemoTasks 01C6     __end_of_APP_DeviceCDCBasicDemoInitialize 2E54  
  __size_of_APP_DeviceCDCBasicDemoInitialize 0024           ??_APP_DeviceCDCBasicDemoInitialize 0001  
          ?_APP_DeviceCDCBasicDemoInitialize 0001             _APP_DeviceCDCBasicDemoInitialize 2E30  
                         __end_of_LED_Enable 2CB4                  __size_of_USBWakeFromSuspend 0034  
                                _pBDTEntryIn 0078             __end_of_USBCtrlEPServiceComplete 209A  
                __size_of_USBCheckCDCRequest 00BC                         USBCtrlTrfRxService@i 0001  
                              LED_Enable@led 00F8               __end_of_APP_LEDUpdateUSBStatus 283A  
                                    ?_memcpy 0001                 APP_DeviceCDCBasicDemoTasks@i 01C9  
                                    ?_memset 00F6                                   _device_dsc 0FB4  
                           _USBCtrlEPService 267E                                   _ep_data_in 0091  
                __end_of_USBCtrlTrfRxService 1CE4                           _USBCheckStdRequest 1ED6  
                          _configDescriptor1 0F09                              ??_putrsUSBUSART 00F8  
                                    _LED_Off 2D7A                  __end_ofi2_SYSTEM_Initialize 2A2C  
                                 ??i2_memset 0007                  __end_of_USBCtrlTrfTxService 223A  
                        _USBStdSetCfgHandler 209A                          ?_USBCheckStdRequest 0001  
               __size_of_USBStdGetDscHandler 0138                                      _UIEbits 000F36  
                                    _UIRbits 000F62                              __size_of_LED_On 0030  
                              _cdc_trf_state 0037               APP_LEDUpdateUSBStatus@ledCount 002E  
                                    _pCDCDst 0088                                      _pCDCSrc 008B  
                      __size_of_getsUSBUSART 00A2                                      __Hparam 0000  
            ??_USBIncrement1msInternalTimers 0001                         ?_USBStdSetCfgHandler 0001  
                                  _CDCInitEP 2A2C                                      __Lparam 0000  
                 __size_of_USBEnableEndpoint 0038                                   _readBuffer 0140  
                       ??_USBCheckStdRequest 001C                __size_of_USBCtrlTrfOutHandler 005C  
                           ??_USBDeviceTasks 001F                            ??_USBStallHandler 0001  
                               __psmallconst 0F00         __size_of_APP_DeviceCDCBasicDemoTasks 00F0  
                       __size_of_putUSBUSART 0022                                      __pcinit 2AEC  
                         getsUSBUSART@buffer 01C3                              __size_of_memcpy 0044  
                            __size_of_memset 0168                    __end_of_configDescriptor1 0F4C  
                                    __ramtop 0F00                                      __ptext0 2E94  
                                    __ptext1 1614                                      __ptext2 123A  
                                    __ptext3 2CE8                                      __ptext4 294C  
                                    __ptext5 2C80                                      __ptext6 2DAA  
                                    __ptext7 1DE6                                      __ptext8 2B3E  
                                    __ptext9 2E54                                 i2memset@dest 0001  
                                    _inPipes 0072                  _USBDeferOUTDataStagePackets 0039  
                               ??_USBSuspend 0015                              i2_USBDeviceInit 174A  
                           i2USBDeviceInit@i 000D                           __end_of_USB_CD_Ptr 0F09  
                 __size_of_SYSTEM_Initialize 0072              __size_of_USBCtrlTrfSetupHandler 0090  
                       end_of_initialization 2B30                                 _getsUSBUSART 253E  
                       __end_ofi2_LED_Enable 2D4A                           __end_of_USB_SD_Ptr 0F07  
                                    memcpy@d 0007                                      memcpy@n 0005  
                                    memcpy@s 0009                          _pBDTEntryEP0OutNext 0032  
                                    memset@c 00F8                                      memset@k 01C0  
                                    memset@n 00FA                                      memset@s 01C2  
                              __Lmediumconst 0000                              _USB1msTickCount 002A  
            _dummy_encapsulated_cmd_response 00DC                              i2_BUTTON_Enable 2E06  
                   ?_USBStdFeatureReqHandler 0001                        ??_USBStdSetCfgHandler 0015  
                                 ?_CDCInitEP 0001                           __end_of_USBSuspend 2E06  
                    _USBCtrlEPAllowDataStage 25E0                                      postdec1 000FE5  
                                    postdec2 000FDD                                      postinc0 000FEE  
                                    postinc2 000FDE                     _USBCtrlEPServiceComplete 1FBA  
                 _USBStatusStageEnabledFlag1 003C                   _USBStatusStageEnabledFlag2 003B  
                         USBEnableEndpoint@p 000A                                    _PORTBbits 000F81  
                           __CFG_DSBOREN$OFF 000000                             __CFG_CPUDIV$OSC1 000000  
                                  _TRISBbits 000F93                                    _TRISEbits 000F96  
                         _BothEP0OutUOWNsSet 003F                    USBConfigureEndpoint@EPNum 0006  
                 ?_USBCtrlEPAllowStatusStage 0001          USER_USB_CALLBACK_EVENT_HANDLER@size 0011  
    APP_DeviceCDCBasicDemoTasks@numBytesRead 01C8                                    _USTATcopy 004F  
               __end_of_USBTransferOnePacket 1ACA                               __end_of_LED_On 2D7A  
                           __CFG_IOL1WAY$OFF 000000                            putUSBUSART@length 00F8  
                          __CFG_WPEND$PAGE_0 000000                          __CFG_MSSP7B_EN$MSK7 000000  
                     _USBCtrlTrfSetupHandler 283A                     __end_of_BUTTON_IsPressed 2C80  
                    ?i2_USBTransferOnePacket 0001                        __end_of_USBDeviceInit 174A  
      __end_of_USBIncrement1msInternalTimers 2E94       __size_of_USBIncrement1msInternalTimers 001E  
              _USBIncrement1msInternalTimers 2E76                                   LED_Off@led 0003  
                    __end_ofi2_USBDeviceInit 187E                                    i2memset@c 0003  
                                  i2memset@k 0009                                    i2memset@n 0005  
                                  i2memset@s 000B                               __end_of_memcpy 2C12  
                         putrsUSBUSART@pData 00F8                               __end_of_memset 13A2  
                           __CFG_DSWDTEN$OFF 000000                            _USBBusIsSuspended 0041  
                        start_initialization 2AEC                      ?_USBStdGetStatusHandler 0001  
                   i2SYSTEM_Initialize@state 000A                        __end_of_BUTTON_Enable 2DD8  
              USBCtrlTrfRxService@byteToRead 0002                      __end_ofi2_BUTTON_Enable 2E30  
                                _cdc_data_rx 009C                                  _cdc_data_tx 0180  
                          __size_ofi2_memset 0132                 __end_of_USBConfigureEndpoint 27A8  
            __end_of_USBStdFeatureReqHandler 123A                                     ??_LED_On 0001  
          __end_of_USBCtrlEPAllowStatusStage 22FE                     __end_of_USBCtrlEPService 2714  
                  ??_USBCtrlEPAllowDataStage 0002                                  ??_CDCInitEP 000D  
                             USBDeviceInit@i 00FE                       _pBDTEntryEP0OutCurrent 0034  
                    USBTransferOnePacket@dir 00F6                      USBTransferOnePacket@len 00F9  
             __end_ofi2_USBTransferOnePacket 1DE6                          _USBStdGetDscHandler 14DC  
                                __pdataBANK0 00E4                             __CFG_LPT1OSC$OFF 000000  
                                   ??_memcpy 0007                                     ??_memset 00FC  
                                 memset@dest 00F6                       BUTTON_IsPressed@button 00F8  
                     _USBActiveConfiguration 0050               __end_of_USBStdGetStatusHandler 2482  
                                   ?_LED_Off 0001                                  __pbssCOMRAM 002A  
                              __pcstackBANK0 00F6                                __pcstackBANK1 01C0  
               __size_of_USBCtrlTrfInHandler 00C4                        __size_ofi2_LED_Enable 0030  
                       ?_USBStdGetDscHandler 0001                   __end_of_USBWakeFromSuspend 2CE8  
                            _USBStallHandler 2B8A                                 _pBDTEntryOut 007E  
                 __end_of_USBCheckCDCRequest 253E                     __size_of_USBDeviceAttach 0032  
                      i2BUTTON_Enable@button 0003                                    __pintcode 0008  
                               i2_LED_Enable 2D1A                             ?i2_USBDeviceInit 0001  
                       _USBTransferOnePacket 19B0                                  __smallconst 0F00  
                       __CFG_RTCOSC$T1OSCREF 000000                        __end_of_putrsUSBUSART 2B8A  
               __end_of_USBCtrlTrfOutHandler 2AEC                        ??_USBStdGetDscHandler 0001  
                                _ep_data_out 008E                             ?i2_BUTTON_Enable 0001  
        __end_of_APP_DeviceCDCBasicDemoTasks 1ED6                  _APP_DeviceCDCBasicDemoTasks 1DE6  
               __size_of_USBCtrlTrfRxService 010A                USBConfigureEndpoint@direction 0001  
               __size_ofi2_SYSTEM_Initialize 006E                 __size_of_USBCtrlTrfTxService 00CC  
                                   _LATEbits 000F8D                   ??_USBCtrlEPServiceComplete 0002  
                                   _IPR2bits 000FA2                                     _PIE2bits 000FA0  
                                   i2u204_40 21E6                                     i2u204_47 21DC  
                                   i2u206_40 2224                                     i2u206_47 221A  
                                   i2u223_40 1552                                     i2u223_47 1548  
                                   i2u224_40 1582                                     i2u224_47 1578  
                                   i2u226_40 15D2                                     i2u226_47 15C8  
                                   i2u340_40 14D8                                     i2u249_40 11B0  
                                   i2u194_40 27E2                                     _PIR2bits 000FA1  
                                   _RCONbits 000FD0                                ??_putUSBUSART 00F9  
                           __CFG_WDTPS$32768 000000                                     _UEP0bits 000F26  
                 _USBDeferINDataStagePackets 003A                  __size_of_USBCheckStdRequest 00E4  
                                   _UCONbits 000F65                         _USBConfigureEndpoint 2714  
           __size_of_USBStdFeatureReqHandler 026E                        ?_USBTransferOnePacket 00F6  
                            i2LED_Enable@led 0003                            _SYS_InterruptHigh 0008  
                              ?_CDCTxService 0001                             __CFG_WPFP$PAGE_1 000000  
                               _RemoteWakeup 0042                                     i2_memset 187E  
                           __size_of_LED_Off 0030                           ?_SYS_InterruptHigh 0001  
                    __end_of_USBStallHandler 2BCE                                    copy_data0 2B00  
                          putrsUSBUSART@data 00F6                  ??_USBCtrlEPAllowStatusStage 0001  
                __end_of_USBStdSetCfgHandler 216E                          ??_SYS_InterruptHigh 0020  
                         __end_of_device_dsc 0FC6                     ??_APP_LEDUpdateUSBStatus 0004  
                    ?_USBCtrlTrfSetupHandler 0001                                   _ANCON1bits 000F49  
                    USBStdGetStatusHandler@p 0003                                     __Hrparam 0000  
                                  memcpy@tmp 000B                                     __Lrparam 0000  
                     USBTransferOnePacket@ep 01C0                                     _SetupPkt 000430  
                      ?_USBConfigureEndpoint 0001                            ??_USBDeviceAttach 00F6  
                          ?_BUTTON_IsPressed 0001                    __end_of_SYS_InterruptHigh 0062  
                         ??_BUTTON_IsPressed 00F6                          __end_of_putUSBUSART 2E76  
                                _line_coding 0046                               ??_CDCTxService 00FE  
                    __size_of_USBDeviceTasks 013A                                     __ptext10 253E  
                                   __ptext11 1ACA                                     __ptext20 2E76  
                                   __ptext12 19B0                                     __ptext21 267E  
                                   __ptext13 2C4A                                     __ptext30 14DC  
                                   __ptext22 2BCE                                     __ptext31 0FCC  
                                   __ptext23 283A                                     __ptext15 13A2  
                                   __ptext40 2714                                     __ptext32 28CA  
                                   __ptext24 1FBA                                     __ptext16 174A  
                                   __ptext41 27A8                                     __ptext33 29BE  
                                   __ptext25 25E0                                     __ptext17 2CB4  
                                   __ptext42 2D4A                                     __ptext34 2D1A  
                                   __ptext26 1ED6                                     __ptext18 2DD8  
                                   __ptext43 2D7A                                     __ptext35 2E06  
                                   __ptext27 209A                                     __ptext19 2B8A  
                                   __ptext44 2E30                                     __ptext36 2482  
                                   __ptext28 187E                                     __ptext45 2A90  
                                   __ptext37 2A2C                                     __ptext29 23C2  
                                   __ptext46 1BDA                                     __ptext38 1CE4  
                                   __ptext47 223A                                     __ptext39 2C12  
                                   __ptext48 22FE                                     __ptext49 216E  
             __end_of_USBCtrlTrfSetupHandler 28CA                                __size_of_main 0014  
                          ?_USBCtrlEPService 0001                           ??_USBCtrlEPService 001E  
                        _USBCtrlTrfInHandler 22FE                          BUTTON_Enable@button 00F8  
                                   _outPipes 006A                         _USBCtrlTrfOutHandler 2A90  
                                   int$flags 0051                    _USBCtrlEPAllowStatusStage 223A  
                                 _LED_Enable 2C80                       ??_USBTransferOnePacket 00FA  
                           putrsUSBUSART@len 00FA                    _USBDeferStatusStagePacket 003D  
                   CDCTxService@byte_to_send 00FF                                  _OSCTUNEbits 000F9B  
                                 _INTCONbits 000FF2                         ?_USBCtrlTrfInHandler 0001  
                                   memcpy@d1 0001                                     memcpy@s1 0003  
              USBCtrlTrfTxService@byteToSend 0001                             ?_USBStallHandler 0001  
                   USBStdFeatureReqHandler@p 001A                                     intlevel2 0000  
                     __size_of_USBDeviceInit 0136      __end_of_USER_USB_CALLBACK_EVENT_HANDLER 294C  
   __size_of_USER_USB_CALLBACK_EVENT_HANDLER 0082            ??_USER_USB_CALLBACK_EVENT_HANDLER 0013  
           ?_USER_USB_CALLBACK_EVENT_HANDLER 000D              _USER_USB_CALLBACK_EVENT_HANDLER 28CA  
               i2USBTransferOnePacket@handle 000A       i2SYSTEM_Initialize@pll_startup_counter 0006  
       SYSTEM_Initialize@pll_startup_counter 00FB              __size_of_APP_LEDUpdateUSBStatus 0092  
                 i2USBTransferOnePacket@data 0002                       ??_USBConfigureEndpoint 0002  
                      ?_USBCtrlTrfOutHandler 0001                       __size_of_BUTTON_Enable 002E  
                                _putUSBUSART 2E54                          _USBCtrlTrfRxService 1BDA  
                         _USBWakeFromSuspend 2CB4                      _USBStdFeatureReqHandler 0FCC  
                        i2_SYSTEM_Initialize 29BE                           _USBCheckCDCRequest 2482  
                        _USBCtrlTrfTxService 216E                   __size_of_SYS_InterruptHigh 005A  
                        ?_USBWakeFromSuspend 0001                        ??_USBCtrlTrfInHandler 0002  
                      _USBAlternateInterface 004D                          ?_USBCheckCDCRequest 0001  
                  i2USBTransferOnePacket@dir 0001                    i2USBTransferOnePacket@len 0004  
                        USBEnableEndpoint@ep 000C                              _endpoint_number 0040  
                       ?_USBCtrlTrfRxService 0001                                ?_getsUSBUSART 01C3  
                       ?i2_SYSTEM_Initialize 0001                     ?_USBCtrlEPAllowDataStage 0001  
                       ?_USBCtrlTrfTxService 0001                 _USBStatusStageTimeoutCounter 003E  
                       ??_USBWakeFromSuspend 0015                   USBTransferOnePacket@handle 01C1  
                       __end_of_CDCTxService 1BDA                         ??_USBCheckCDCRequest 0001  
                                 _USB_CD_Ptr 0F07  
